
lookup:     file format elf32-littleriscv


Disassembly of section .text:

00010074 <register_fini>:
   10074:	00000793          	li	a5,0
   10078:	00078863          	beqz	a5,10088 <register_fini+0x14>
   1007c:	0000c517          	auipc	a0,0xc
   10080:	d6c50513          	addi	a0,a0,-660 # 1bde8 <__libc_fini_array>
   10084:	6791806f          	j	28efc <atexit>
   10088:	00008067          	ret

0001008c <_start>:
   1008c:	00029197          	auipc	gp,0x29
   10090:	55c18193          	addi	gp,gp,1372 # 395e8 <__global_pointer$>
   10094:	92218513          	addi	a0,gp,-1758 # 38f0a <__bss_start>
   10098:	0004b617          	auipc	a2,0x4b
   1009c:	ed860613          	addi	a2,a2,-296 # 5af70 <__BSS_END__>
   100a0:	40a60633          	sub	a2,a2,a0
   100a4:	00000593          	li	a1,0
   100a8:	470040ef          	jal	ra,14518 <memset>
   100ac:	00019517          	auipc	a0,0x19
   100b0:	e5050513          	addi	a0,a0,-432 # 28efc <atexit>
   100b4:	00050863          	beqz	a0,100c4 <_start+0x38>
   100b8:	0000c517          	auipc	a0,0xc
   100bc:	d3050513          	addi	a0,a0,-720 # 1bde8 <__libc_fini_array>
   100c0:	63d180ef          	jal	ra,28efc <atexit>
   100c4:	7c0030ef          	jal	ra,13884 <__libc_init_array>
   100c8:	00012503          	lw	a0,0(sp)
   100cc:	00410593          	addi	a1,sp,4
   100d0:	00000613          	li	a2,0
   100d4:	070000ef          	jal	ra,10144 <main>
   100d8:	0200206f          	j	120f8 <exit>

000100dc <__do_global_dtors_aux>:
   100dc:	ff010113          	addi	sp,sp,-16
   100e0:	00812423          	sw	s0,8(sp)
   100e4:	94418413          	addi	s0,gp,-1724 # 38f2c <completed.1>
   100e8:	00044783          	lbu	a5,0(s0)
   100ec:	00112623          	sw	ra,12(sp)
   100f0:	02079263          	bnez	a5,10114 <__do_global_dtors_aux+0x38>
   100f4:	00000793          	li	a5,0
   100f8:	00078a63          	beqz	a5,1010c <__do_global_dtors_aux+0x30>
   100fc:	00026517          	auipc	a0,0x26
   10100:	f0450513          	addi	a0,a0,-252 # 36000 <__EH_FRAME_BEGIN__>
   10104:	00000097          	auipc	ra,0x0
   10108:	000000e7          	jalr	zero # 0 <register_fini-0x10074>
   1010c:	00100793          	li	a5,1
   10110:	00f40023          	sb	a5,0(s0)
   10114:	00c12083          	lw	ra,12(sp)
   10118:	00812403          	lw	s0,8(sp)
   1011c:	01010113          	addi	sp,sp,16
   10120:	00008067          	ret

00010124 <frame_dummy>:
   10124:	00000793          	li	a5,0
   10128:	00078c63          	beqz	a5,10140 <frame_dummy+0x1c>
   1012c:	94818593          	addi	a1,gp,-1720 # 38f30 <object.0>
   10130:	00026517          	auipc	a0,0x26
   10134:	ed050513          	addi	a0,a0,-304 # 36000 <__EH_FRAME_BEGIN__>
   10138:	00000317          	auipc	t1,0x0
   1013c:	00000067          	jr	zero # 0 <register_fini-0x10074>
   10140:	00008067          	ret

00010144 <main>:
   10144:	e3010113          	addi	sp,sp,-464
   10148:	1c112623          	sw	ra,460(sp)
   1014c:	1c812423          	sw	s0,456(sp)
   10150:	1d010413          	addi	s0,sp,464
   10154:	e8a42623          	sw	a0,-372(s0)
   10158:	e8b42423          	sw	a1,-376(s0)
   1015c:	9141a783          	lw	a5,-1772(gp) # 38efc <_impure_ptr>
   10160:	0047a783          	lw	a5,4(a5)
   10164:	00078613          	mv	a2,a5
   10168:	40000593          	li	a1,1024
   1016c:	000397b7          	lui	a5,0x39
   10170:	f4878513          	addi	a0,a5,-184 # 38f48 <buffer>
   10174:	5dc020ef          	jal	ra,12750 <fgets>
   10178:	00050793          	mv	a5,a0
   1017c:	00f037b3          	snez	a5,a5
   10180:	0ff7f793          	andi	a5,a5,255
   10184:	3a078663          	beqz	a5,10530 <main+0x3ec>
   10188:	000397b7          	lui	a5,0x39
   1018c:	f4878793          	addi	a5,a5,-184 # 38f48 <buffer>
   10190:	0007c703          	lbu	a4,0(a5)
   10194:	04900793          	li	a5,73
   10198:	16f71a63          	bne	a4,a5,1030c <main+0x1c8>
   1019c:	fec40813          	addi	a6,s0,-20
   101a0:	fd440793          	addi	a5,s0,-44
   101a4:	00c78513          	addi	a0,a5,12
   101a8:	fd440793          	addi	a5,s0,-44
   101ac:	00878593          	addi	a1,a5,8
   101b0:	fd440793          	addi	a5,s0,-44
   101b4:	00478713          	addi	a4,a5,4
   101b8:	fd440693          	addi	a3,s0,-44
   101bc:	ec340613          	addi	a2,s0,-317
   101c0:	fe440793          	addi	a5,s0,-28
   101c4:	00f12a23          	sw	a5,20(sp)
   101c8:	fc440793          	addi	a5,s0,-60
   101cc:	00c78793          	addi	a5,a5,12
   101d0:	00f12823          	sw	a5,16(sp)
   101d4:	fc440793          	addi	a5,s0,-60
   101d8:	00878793          	addi	a5,a5,8
   101dc:	00f12623          	sw	a5,12(sp)
   101e0:	fc440793          	addi	a5,s0,-60
   101e4:	00478793          	addi	a5,a5,4
   101e8:	00f12423          	sw	a5,8(sp)
   101ec:	fc440793          	addi	a5,s0,-60
   101f0:	00f12223          	sw	a5,4(sp)
   101f4:	fe840793          	addi	a5,s0,-24
   101f8:	00f12023          	sw	a5,0(sp)
   101fc:	00080893          	mv	a7,a6
   10200:	00050813          	mv	a6,a0
   10204:	00058793          	mv	a5,a1
   10208:	000345b7          	lui	a1,0x34
   1020c:	19058593          	addi	a1,a1,400 # 34190 <_ZL12NODE_ADDRESS+0x20>
   10210:	00039537          	lui	a0,0x39
   10214:	f4850513          	addi	a0,a0,-184 # 38f48 <buffer>
   10218:	1c9040ef          	jal	ra,14be0 <sscanf>
   1021c:	fec42703          	lw	a4,-20(s0)
   10220:	08000793          	li	a5,128
   10224:	02e7f263          	bgeu	a5,a4,10248 <main+0x104>
   10228:	000347b7          	lui	a5,0x34
   1022c:	1ac78693          	addi	a3,a5,428 # 341ac <_ZL12NODE_ADDRESS+0x3c>
   10230:	000347b7          	lui	a5,0x34
   10234:	1c478613          	addi	a2,a5,452 # 341c4 <_ZL12NODE_ADDRESS+0x54>
   10238:	01800593          	li	a1,24
   1023c:	000347b7          	lui	a5,0x34
   10240:	1dc78513          	addi	a0,a5,476 # 341dc <_ZL12NODE_ADDRESS+0x6c>
   10244:	64d010ef          	jal	ra,12090 <__assert_func>
   10248:	fd442603          	lw	a2,-44(s0)
   1024c:	fd842683          	lw	a3,-40(s0)
   10250:	fdc42703          	lw	a4,-36(s0)
   10254:	fe042783          	lw	a5,-32(s0)
   10258:	e8c42a23          	sw	a2,-364(s0)
   1025c:	e8d42c23          	sw	a3,-360(s0)
   10260:	e8e42e23          	sw	a4,-356(s0)
   10264:	eaf42023          	sw	a5,-352(s0)
   10268:	fec42783          	lw	a5,-20(s0)
   1026c:	eaf42223          	sw	a5,-348(s0)
   10270:	fe842783          	lw	a5,-24(s0)
   10274:	eaf42423          	sw	a5,-344(s0)
   10278:	fc442603          	lw	a2,-60(s0)
   1027c:	fc842683          	lw	a3,-56(s0)
   10280:	fcc42703          	lw	a4,-52(s0)
   10284:	fd042783          	lw	a5,-48(s0)
   10288:	eac42623          	sw	a2,-340(s0)
   1028c:	ead42823          	sw	a3,-336(s0)
   10290:	eae42a23          	sw	a4,-332(s0)
   10294:	eaf42c23          	sw	a5,-328(s0)
   10298:	fe442783          	lw	a5,-28(s0)
   1029c:	eaf42e23          	sw	a5,-324(s0)
   102a0:	e9442e83          	lw	t4,-364(s0)
   102a4:	e9842e03          	lw	t3,-360(s0)
   102a8:	e9c42303          	lw	t1,-356(s0)
   102ac:	ea042883          	lw	a7,-352(s0)
   102b0:	ea442803          	lw	a6,-348(s0)
   102b4:	ea842503          	lw	a0,-344(s0)
   102b8:	eac42583          	lw	a1,-340(s0)
   102bc:	eb042603          	lw	a2,-336(s0)
   102c0:	eb442683          	lw	a3,-332(s0)
   102c4:	eb842703          	lw	a4,-328(s0)
   102c8:	ebc42783          	lw	a5,-324(s0)
   102cc:	e5d42823          	sw	t4,-432(s0)
   102d0:	e5c42a23          	sw	t3,-428(s0)
   102d4:	e4642c23          	sw	t1,-424(s0)
   102d8:	e5142e23          	sw	a7,-420(s0)
   102dc:	e7042023          	sw	a6,-416(s0)
   102e0:	e6a42223          	sw	a0,-412(s0)
   102e4:	e6b42423          	sw	a1,-408(s0)
   102e8:	e6c42623          	sw	a2,-404(s0)
   102ec:	e6d42823          	sw	a3,-400(s0)
   102f0:	e6e42a23          	sw	a4,-396(s0)
   102f4:	e6f42c23          	sw	a5,-392(s0)
   102f8:	e5040793          	addi	a5,s0,-432
   102fc:	00078593          	mv	a1,a5
   10300:	00100513          	li	a0,1
   10304:	02c010ef          	jal	ra,11330 <_Z6updateb17RoutingTableEntry>
   10308:	e55ff06f          	j	1015c <main+0x18>
   1030c:	000397b7          	lui	a5,0x39
   10310:	f4878793          	addi	a5,a5,-184 # 38f48 <buffer>
   10314:	0007c703          	lbu	a4,0(a5)
   10318:	04400793          	li	a5,68
   1031c:	14f71263          	bne	a4,a5,10460 <main+0x31c>
   10320:	fec40813          	addi	a6,s0,-20
   10324:	fd440793          	addi	a5,s0,-44
   10328:	00c78513          	addi	a0,a5,12
   1032c:	fd440793          	addi	a5,s0,-44
   10330:	00878593          	addi	a1,a5,8
   10334:	fd440793          	addi	a5,s0,-44
   10338:	00478713          	addi	a4,a5,4
   1033c:	fd440693          	addi	a3,s0,-44
   10340:	ec340613          	addi	a2,s0,-317
   10344:	fe440793          	addi	a5,s0,-28
   10348:	00f12023          	sw	a5,0(sp)
   1034c:	00080893          	mv	a7,a6
   10350:	00050813          	mv	a6,a0
   10354:	00058793          	mv	a5,a1
   10358:	000345b7          	lui	a1,0x34
   1035c:	1e858593          	addi	a1,a1,488 # 341e8 <_ZL12NODE_ADDRESS+0x78>
   10360:	00039537          	lui	a0,0x39
   10364:	f4850513          	addi	a0,a0,-184 # 38f48 <buffer>
   10368:	079040ef          	jal	ra,14be0 <sscanf>
   1036c:	fec42703          	lw	a4,-20(s0)
   10370:	08000793          	li	a5,128
   10374:	02e7f263          	bgeu	a5,a4,10398 <main+0x254>
   10378:	000347b7          	lui	a5,0x34
   1037c:	1ac78693          	addi	a3,a5,428 # 341ac <_ZL12NODE_ADDRESS+0x3c>
   10380:	000347b7          	lui	a5,0x34
   10384:	1c478613          	addi	a2,a5,452 # 341c4 <_ZL12NODE_ADDRESS+0x54>
   10388:	02100593          	li	a1,33
   1038c:	000347b7          	lui	a5,0x34
   10390:	1dc78513          	addi	a0,a5,476 # 341dc <_ZL12NODE_ADDRESS+0x6c>
   10394:	4fd010ef          	jal	ra,12090 <__assert_func>
   10398:	e8042a23          	sw	zero,-364(s0)
   1039c:	e8042c23          	sw	zero,-360(s0)
   103a0:	e8042e23          	sw	zero,-356(s0)
   103a4:	ea042023          	sw	zero,-352(s0)
   103a8:	ea042223          	sw	zero,-348(s0)
   103ac:	ea042423          	sw	zero,-344(s0)
   103b0:	ea042623          	sw	zero,-340(s0)
   103b4:	ea042823          	sw	zero,-336(s0)
   103b8:	ea042a23          	sw	zero,-332(s0)
   103bc:	ea042c23          	sw	zero,-328(s0)
   103c0:	ea042e23          	sw	zero,-324(s0)
   103c4:	fd442603          	lw	a2,-44(s0)
   103c8:	fd842683          	lw	a3,-40(s0)
   103cc:	fdc42703          	lw	a4,-36(s0)
   103d0:	fe042783          	lw	a5,-32(s0)
   103d4:	e8c42a23          	sw	a2,-364(s0)
   103d8:	e8d42c23          	sw	a3,-360(s0)
   103dc:	e8e42e23          	sw	a4,-356(s0)
   103e0:	eaf42023          	sw	a5,-352(s0)
   103e4:	fec42783          	lw	a5,-20(s0)
   103e8:	eaf42223          	sw	a5,-348(s0)
   103ec:	fe442783          	lw	a5,-28(s0)
   103f0:	eaf42e23          	sw	a5,-324(s0)
   103f4:	e9442e83          	lw	t4,-364(s0)
   103f8:	e9842e03          	lw	t3,-360(s0)
   103fc:	e9c42303          	lw	t1,-356(s0)
   10400:	ea042883          	lw	a7,-352(s0)
   10404:	ea442803          	lw	a6,-348(s0)
   10408:	ea842503          	lw	a0,-344(s0)
   1040c:	eac42583          	lw	a1,-340(s0)
   10410:	eb042603          	lw	a2,-336(s0)
   10414:	eb442683          	lw	a3,-332(s0)
   10418:	eb842703          	lw	a4,-328(s0)
   1041c:	ebc42783          	lw	a5,-324(s0)
   10420:	e5d42823          	sw	t4,-432(s0)
   10424:	e5c42a23          	sw	t3,-428(s0)
   10428:	e4642c23          	sw	t1,-424(s0)
   1042c:	e5142e23          	sw	a7,-420(s0)
   10430:	e7042023          	sw	a6,-416(s0)
   10434:	e6a42223          	sw	a0,-412(s0)
   10438:	e6b42423          	sw	a1,-408(s0)
   1043c:	e6c42623          	sw	a2,-404(s0)
   10440:	e6d42823          	sw	a3,-400(s0)
   10444:	e6e42a23          	sw	a4,-396(s0)
   10448:	e6f42c23          	sw	a5,-392(s0)
   1044c:	e5040793          	addi	a5,s0,-432
   10450:	00078593          	mv	a1,a5
   10454:	00000513          	li	a0,0
   10458:	6d9000ef          	jal	ra,11330 <_Z6updateb17RoutingTableEntry>
   1045c:	d01ff06f          	j	1015c <main+0x18>
   10460:	000397b7          	lui	a5,0x39
   10464:	f4878793          	addi	a5,a5,-184 # 38f48 <buffer>
   10468:	0007c703          	lbu	a4,0(a5)
   1046c:	05100793          	li	a5,81
   10470:	cef716e3          	bne	a4,a5,1015c <main+0x18>
   10474:	fd440793          	addi	a5,s0,-44
   10478:	00c78513          	addi	a0,a5,12
   1047c:	fd440793          	addi	a5,s0,-44
   10480:	00878593          	addi	a1,a5,8
   10484:	fd440793          	addi	a5,s0,-44
   10488:	00478713          	addi	a4,a5,4
   1048c:	fd440693          	addi	a3,s0,-44
   10490:	ec340613          	addi	a2,s0,-317
   10494:	00050813          	mv	a6,a0
   10498:	00058793          	mv	a5,a1
   1049c:	000345b7          	lui	a1,0x34
   104a0:	1f858593          	addi	a1,a1,504 # 341f8 <_ZL12NODE_ADDRESS+0x88>
   104a4:	00039537          	lui	a0,0x39
   104a8:	f4850513          	addi	a0,a0,-184 # 38f48 <buffer>
   104ac:	734040ef          	jal	ra,14be0 <sscanf>
   104b0:	fd442603          	lw	a2,-44(s0)
   104b4:	fd842683          	lw	a3,-40(s0)
   104b8:	fdc42703          	lw	a4,-36(s0)
   104bc:	fe042783          	lw	a5,-32(s0)
   104c0:	e4c42823          	sw	a2,-432(s0)
   104c4:	e4d42a23          	sw	a3,-428(s0)
   104c8:	e4e42c23          	sw	a4,-424(s0)
   104cc:	e4f42e23          	sw	a5,-420(s0)
   104d0:	fe440693          	addi	a3,s0,-28
   104d4:	fe840613          	addi	a2,s0,-24
   104d8:	fc440713          	addi	a4,s0,-60
   104dc:	e5040793          	addi	a5,s0,-432
   104e0:	00070593          	mv	a1,a4
   104e4:	00078513          	mv	a0,a5
   104e8:	789000ef          	jal	ra,11470 <_Z12prefix_query8in6_addrPS_PjS1_>
   104ec:	00050793          	mv	a5,a0
   104f0:	02078863          	beqz	a5,10520 <main+0x3dc>
   104f4:	fc442583          	lw	a1,-60(s0)
   104f8:	fc842603          	lw	a2,-56(s0)
   104fc:	fcc42683          	lw	a3,-52(s0)
   10500:	fd042703          	lw	a4,-48(s0)
   10504:	fe842783          	lw	a5,-24(s0)
   10508:	fe442503          	lw	a0,-28(s0)
   1050c:	00050813          	mv	a6,a0
   10510:	00034537          	lui	a0,0x34
   10514:	20450513          	addi	a0,a0,516 # 34204 <_ZL12NODE_ADDRESS+0x94>
   10518:	180040ef          	jal	ra,14698 <printf>
   1051c:	c41ff06f          	j	1015c <main+0x18>
   10520:	000347b7          	lui	a5,0x34
   10524:	22078513          	addi	a0,a5,544 # 34220 <_ZL12NODE_ADDRESS+0xb0>
   10528:	288040ef          	jal	ra,147b0 <puts>
   1052c:	c31ff06f          	j	1015c <main+0x18>
   10530:	e8c42703          	lw	a4,-372(s0)
   10534:	00100793          	li	a5,1
   10538:	02e7d063          	bge	a5,a4,10558 <main+0x414>
   1053c:	e8842783          	lw	a5,-376(s0)
   10540:	00478793          	addi	a5,a5,4
   10544:	0007a783          	lw	a5,0(a5)
   10548:	0007c703          	lbu	a4,0(a5)
   1054c:	06d00793          	li	a5,109
   10550:	00f71463          	bne	a4,a5,10558 <main+0x414>
   10554:	03d010ef          	jal	ra,11d90 <_Z10export_memv>
   10558:	00000793          	li	a5,0
   1055c:	00078513          	mv	a0,a5
   10560:	1cc12083          	lw	ra,460(sp)
   10564:	1c812403          	lw	s0,456(sp)
   10568:	1d010113          	addi	sp,sp,464
   1056c:	00008067          	ret

00010570 <_ZL5INDEX8in6_addrii>:
   10570:	fd010113          	addi	sp,sp,-48
   10574:	02812623          	sw	s0,44(sp)
   10578:	02912423          	sw	s1,40(sp)
   1057c:	03010413          	addi	s0,sp,48
   10580:	00050493          	mv	s1,a0
   10584:	fcb42e23          	sw	a1,-36(s0)
   10588:	fcc42c23          	sw	a2,-40(s0)
   1058c:	fe042623          	sw	zero,-20(s0)
   10590:	08000613          	li	a2,128
   10594:	fdc42683          	lw	a3,-36(s0)
   10598:	40d60633          	sub	a2,a2,a3
   1059c:	fd842683          	lw	a3,-40(s0)
   105a0:	40d606b3          	sub	a3,a2,a3
   105a4:	fed42423          	sw	a3,-24(s0)
   105a8:	00f00693          	li	a3,15
   105ac:	fed42223          	sw	a3,-28(s0)
   105b0:	fe442683          	lw	a3,-28(s0)
   105b4:	0a06c063          	bltz	a3,10654 <_ZL5INDEX8in6_addrii+0xe4>
   105b8:	fe842683          	lw	a3,-24(s0)
   105bc:	0206ce63          	bltz	a3,105f8 <_ZL5INDEX8in6_addrii+0x88>
   105c0:	fe842603          	lw	a2,-24(s0)
   105c4:	00700693          	li	a3,7
   105c8:	02c6c863          	blt	a3,a2,105f8 <_ZL5INDEX8in6_addrii+0x88>
   105cc:	fe442683          	lw	a3,-28(s0)
   105d0:	00d486b3          	add	a3,s1,a3
   105d4:	0006c683          	lbu	a3,0(a3)
   105d8:	00068613          	mv	a2,a3
   105dc:	fe842683          	lw	a3,-24(s0)
   105e0:	40d656b3          	sra	a3,a2,a3
   105e4:	00068613          	mv	a2,a3
   105e8:	fec42683          	lw	a3,-20(s0)
   105ec:	00c6e6b3          	or	a3,a3,a2
   105f0:	fed42623          	sw	a3,-20(s0)
   105f4:	0340006f          	j	10628 <_ZL5INDEX8in6_addrii+0xb8>
   105f8:	fe842683          	lw	a3,-24(s0)
   105fc:	0206d663          	bgez	a3,10628 <_ZL5INDEX8in6_addrii+0xb8>
   10600:	fe442683          	lw	a3,-28(s0)
   10604:	00d486b3          	add	a3,s1,a3
   10608:	0006c683          	lbu	a3,0(a3)
   1060c:	00068613          	mv	a2,a3
   10610:	fe842683          	lw	a3,-24(s0)
   10614:	40d006b3          	neg	a3,a3
   10618:	00d616b3          	sll	a3,a2,a3
   1061c:	fec42603          	lw	a2,-20(s0)
   10620:	00d666b3          	or	a3,a2,a3
   10624:	fed42623          	sw	a3,-20(s0)
   10628:	fe842683          	lw	a3,-24(s0)
   1062c:	ff868693          	addi	a3,a3,-8
   10630:	fed42423          	sw	a3,-24(s0)
   10634:	fe842603          	lw	a2,-24(s0)
   10638:	fe000693          	li	a3,-32
   1063c:	00d64a63          	blt	a2,a3,10650 <_ZL5INDEX8in6_addrii+0xe0>
   10640:	fe442683          	lw	a3,-28(s0)
   10644:	fff68693          	addi	a3,a3,-1
   10648:	fed42223          	sw	a3,-28(s0)
   1064c:	f65ff06f          	j	105b0 <_ZL5INDEX8in6_addrii+0x40>
   10650:	00000013          	nop
   10654:	fd842683          	lw	a3,-40(s0)
   10658:	fe068693          	addi	a3,a3,-32
   1065c:	0006ca63          	bltz	a3,10670 <_ZL5INDEX8in6_addrii+0x100>
   10660:	fff00613          	li	a2,-1
   10664:	00d617b3          	sll	a5,a2,a3
   10668:	00000713          	li	a4,0
   1066c:	0380006f          	j	106a4 <_ZL5INDEX8in6_addrii+0x134>
   10670:	fff00693          	li	a3,-1
   10674:	0016d613          	srli	a2,a3,0x1
   10678:	01f00593          	li	a1,31
   1067c:	fd842683          	lw	a3,-40(s0)
   10680:	40d586b3          	sub	a3,a1,a3
   10684:	00d656b3          	srl	a3,a2,a3
   10688:	fd842603          	lw	a2,-40(s0)
   1068c:	fff00593          	li	a1,-1
   10690:	00c597b3          	sll	a5,a1,a2
   10694:	00f6e7b3          	or	a5,a3,a5
   10698:	fd842683          	lw	a3,-40(s0)
   1069c:	fff00613          	li	a2,-1
   106a0:	00d61733          	sll	a4,a2,a3
   106a4:	00070793          	mv	a5,a4
   106a8:	fff7c793          	not	a5,a5
   106ac:	fec42703          	lw	a4,-20(s0)
   106b0:	00f777b3          	and	a5,a4,a5
   106b4:	fef42623          	sw	a5,-20(s0)
   106b8:	fec42783          	lw	a5,-20(s0)
   106bc:	00078513          	mv	a0,a5
   106c0:	02c12403          	lw	s0,44(sp)
   106c4:	02812483          	lw	s1,40(sp)
   106c8:	03010113          	addi	sp,sp,48
   106cc:	00008067          	ret

000106d0 <_Z10_new_entry17RoutingTableEntry>:
   106d0:	fe010113          	addi	sp,sp,-32
   106d4:	00812e23          	sw	s0,28(sp)
   106d8:	00912c23          	sw	s1,24(sp)
   106dc:	02010413          	addi	s0,sp,32
   106e0:	00050493          	mv	s1,a0
   106e4:	fe042623          	sw	zero,-20(s0)
   106e8:	9241a783          	lw	a5,-1756(gp) # 38f0c <entry_count>
   106ec:	fec42703          	lw	a4,-20(s0)
   106f0:	12f77263          	bgeu	a4,a5,10814 <_Z10_new_entry17RoutingTableEntry+0x144>
   106f4:	0005a7b7          	lui	a5,0x5a
   106f8:	34878693          	addi	a3,a5,840 # 5a348 <next_hops>
   106fc:	fec42703          	lw	a4,-20(s0)
   10700:	00070793          	mv	a5,a4
   10704:	00179793          	slli	a5,a5,0x1
   10708:	00e787b3          	add	a5,a5,a4
   1070c:	00379793          	slli	a5,a5,0x3
   10710:	00f687b3          	add	a5,a3,a5
   10714:	0107a703          	lw	a4,16(a5)
   10718:	0144a783          	lw	a5,20(s1)
   1071c:	0ef71463          	bne	a4,a5,10804 <_Z10_new_entry17RoutingTableEntry+0x134>
   10720:	0005a7b7          	lui	a5,0x5a
   10724:	34878693          	addi	a3,a5,840 # 5a348 <next_hops>
   10728:	fec42703          	lw	a4,-20(s0)
   1072c:	00070793          	mv	a5,a4
   10730:	00179793          	slli	a5,a5,0x1
   10734:	00e787b3          	add	a5,a5,a4
   10738:	00379793          	slli	a5,a5,0x3
   1073c:	00f687b3          	add	a5,a3,a5
   10740:	0007a703          	lw	a4,0(a5)
   10744:	0184a783          	lw	a5,24(s1)
   10748:	0af71e63          	bne	a4,a5,10804 <_Z10_new_entry17RoutingTableEntry+0x134>
   1074c:	0005a7b7          	lui	a5,0x5a
   10750:	34878693          	addi	a3,a5,840 # 5a348 <next_hops>
   10754:	fec42703          	lw	a4,-20(s0)
   10758:	00070793          	mv	a5,a4
   1075c:	00179793          	slli	a5,a5,0x1
   10760:	00e787b3          	add	a5,a5,a4
   10764:	00379793          	slli	a5,a5,0x3
   10768:	00f687b3          	add	a5,a3,a5
   1076c:	0047a703          	lw	a4,4(a5)
   10770:	01c4a783          	lw	a5,28(s1)
   10774:	08f71863          	bne	a4,a5,10804 <_Z10_new_entry17RoutingTableEntry+0x134>
   10778:	0005a7b7          	lui	a5,0x5a
   1077c:	34878693          	addi	a3,a5,840 # 5a348 <next_hops>
   10780:	fec42703          	lw	a4,-20(s0)
   10784:	00070793          	mv	a5,a4
   10788:	00179793          	slli	a5,a5,0x1
   1078c:	00e787b3          	add	a5,a5,a4
   10790:	00379793          	slli	a5,a5,0x3
   10794:	00f687b3          	add	a5,a3,a5
   10798:	0087a703          	lw	a4,8(a5)
   1079c:	0204a783          	lw	a5,32(s1)
   107a0:	06f71263          	bne	a4,a5,10804 <_Z10_new_entry17RoutingTableEntry+0x134>
   107a4:	0005a7b7          	lui	a5,0x5a
   107a8:	34878693          	addi	a3,a5,840 # 5a348 <next_hops>
   107ac:	fec42703          	lw	a4,-20(s0)
   107b0:	00070793          	mv	a5,a4
   107b4:	00179793          	slli	a5,a5,0x1
   107b8:	00e787b3          	add	a5,a5,a4
   107bc:	00379793          	slli	a5,a5,0x3
   107c0:	00f687b3          	add	a5,a3,a5
   107c4:	00c7a703          	lw	a4,12(a5)
   107c8:	0244a783          	lw	a5,36(s1)
   107cc:	02f71c63          	bne	a4,a5,10804 <_Z10_new_entry17RoutingTableEntry+0x134>
   107d0:	0005a7b7          	lui	a5,0x5a
   107d4:	34878693          	addi	a3,a5,840 # 5a348 <next_hops>
   107d8:	fec42703          	lw	a4,-20(s0)
   107dc:	00070793          	mv	a5,a4
   107e0:	00179793          	slli	a5,a5,0x1
   107e4:	00e787b3          	add	a5,a5,a4
   107e8:	00379793          	slli	a5,a5,0x3
   107ec:	00f687b3          	add	a5,a3,a5
   107f0:	0147a703          	lw	a4,20(a5)
   107f4:	0284a783          	lw	a5,40(s1)
   107f8:	00f71663          	bne	a4,a5,10804 <_Z10_new_entry17RoutingTableEntry+0x134>
   107fc:	fec42783          	lw	a5,-20(s0)
   10800:	1140006f          	j	10914 <_Z10_new_entry17RoutingTableEntry+0x244>
   10804:	fec42783          	lw	a5,-20(s0)
   10808:	00178793          	addi	a5,a5,1
   1080c:	fef42623          	sw	a5,-20(s0)
   10810:	ed9ff06f          	j	106e8 <_Z10_new_entry17RoutingTableEntry+0x18>
   10814:	9241a703          	lw	a4,-1756(gp) # 38f0c <entry_count>
   10818:	0144a683          	lw	a3,20(s1)
   1081c:	0005a7b7          	lui	a5,0x5a
   10820:	34878613          	addi	a2,a5,840 # 5a348 <next_hops>
   10824:	00070793          	mv	a5,a4
   10828:	00179793          	slli	a5,a5,0x1
   1082c:	00e787b3          	add	a5,a5,a4
   10830:	00379793          	slli	a5,a5,0x3
   10834:	00f607b3          	add	a5,a2,a5
   10838:	00d7a823          	sw	a3,16(a5)
   1083c:	9241a703          	lw	a4,-1756(gp) # 38f0c <entry_count>
   10840:	0184a683          	lw	a3,24(s1)
   10844:	0005a7b7          	lui	a5,0x5a
   10848:	34878613          	addi	a2,a5,840 # 5a348 <next_hops>
   1084c:	00070793          	mv	a5,a4
   10850:	00179793          	slli	a5,a5,0x1
   10854:	00e787b3          	add	a5,a5,a4
   10858:	00379793          	slli	a5,a5,0x3
   1085c:	00f607b3          	add	a5,a2,a5
   10860:	00d7a023          	sw	a3,0(a5)
   10864:	9241a703          	lw	a4,-1756(gp) # 38f0c <entry_count>
   10868:	01c4a683          	lw	a3,28(s1)
   1086c:	0005a7b7          	lui	a5,0x5a
   10870:	34878613          	addi	a2,a5,840 # 5a348 <next_hops>
   10874:	00070793          	mv	a5,a4
   10878:	00179793          	slli	a5,a5,0x1
   1087c:	00e787b3          	add	a5,a5,a4
   10880:	00379793          	slli	a5,a5,0x3
   10884:	00f607b3          	add	a5,a2,a5
   10888:	00d7a223          	sw	a3,4(a5)
   1088c:	9241a703          	lw	a4,-1756(gp) # 38f0c <entry_count>
   10890:	0204a683          	lw	a3,32(s1)
   10894:	0005a7b7          	lui	a5,0x5a
   10898:	34878613          	addi	a2,a5,840 # 5a348 <next_hops>
   1089c:	00070793          	mv	a5,a4
   108a0:	00179793          	slli	a5,a5,0x1
   108a4:	00e787b3          	add	a5,a5,a4
   108a8:	00379793          	slli	a5,a5,0x3
   108ac:	00f607b3          	add	a5,a2,a5
   108b0:	00d7a423          	sw	a3,8(a5)
   108b4:	9241a703          	lw	a4,-1756(gp) # 38f0c <entry_count>
   108b8:	0244a683          	lw	a3,36(s1)
   108bc:	0005a7b7          	lui	a5,0x5a
   108c0:	34878613          	addi	a2,a5,840 # 5a348 <next_hops>
   108c4:	00070793          	mv	a5,a4
   108c8:	00179793          	slli	a5,a5,0x1
   108cc:	00e787b3          	add	a5,a5,a4
   108d0:	00379793          	slli	a5,a5,0x3
   108d4:	00f607b3          	add	a5,a2,a5
   108d8:	00d7a623          	sw	a3,12(a5)
   108dc:	9241a703          	lw	a4,-1756(gp) # 38f0c <entry_count>
   108e0:	0284a683          	lw	a3,40(s1)
   108e4:	0005a7b7          	lui	a5,0x5a
   108e8:	34878613          	addi	a2,a5,840 # 5a348 <next_hops>
   108ec:	00070793          	mv	a5,a4
   108f0:	00179793          	slli	a5,a5,0x1
   108f4:	00e787b3          	add	a5,a5,a4
   108f8:	00379793          	slli	a5,a5,0x3
   108fc:	00f607b3          	add	a5,a2,a5
   10900:	00d7aa23          	sw	a3,20(a5)
   10904:	9241a783          	lw	a5,-1756(gp) # 38f0c <entry_count>
   10908:	00178693          	addi	a3,a5,1
   1090c:	92d1a223          	sw	a3,-1756(gp) # 38f0c <entry_count>
   10910:	00000013          	nop
   10914:	00078513          	mv	a0,a5
   10918:	01c12403          	lw	s0,28(sp)
   1091c:	01812483          	lw	s1,24(sp)
   10920:	02010113          	addi	sp,sp,32
   10924:	00008067          	ret

00010928 <_Z12_insert_nodeiP8TrieNodejS0_>:
   10928:	fc010113          	addi	sp,sp,-64
   1092c:	02112e23          	sw	ra,60(sp)
   10930:	02812c23          	sw	s0,56(sp)
   10934:	04010413          	addi	s0,sp,64
   10938:	fca42623          	sw	a0,-52(s0)
   1093c:	fcb42423          	sw	a1,-56(s0)
   10940:	fcc42223          	sw	a2,-60(s0)
   10944:	fcd42023          	sw	a3,-64(s0)
   10948:	fcc42783          	lw	a5,-52(s0)
   1094c:	00478793          	addi	a5,a5,4
   10950:	41f7d713          	srai	a4,a5,0x1f
   10954:	00f77713          	andi	a4,a4,15
   10958:	00f707b3          	add	a5,a4,a5
   1095c:	4047d793          	srai	a5,a5,0x4
   10960:	fef42023          	sw	a5,-32(s0)
   10964:	fc842783          	lw	a5,-56(s0)
   10968:	0087a703          	lw	a4,8(a5)
   1096c:	010007b7          	lui	a5,0x1000
   10970:	00f777b3          	and	a5,a4,a5
   10974:	1e079463          	bnez	a5,10b5c <_Z12_insert_nodeiP8TrieNodejS0_+0x234>
   10978:	fc842783          	lw	a5,-56(s0)
   1097c:	0087a783          	lw	a5,8(a5) # 1000008 <__BSS_END__+0xfa5098>
   10980:	06079663          	bnez	a5,109ec <_Z12_insert_nodeiP8TrieNodejS0_+0xc4>
   10984:	00100593          	li	a1,1
   10988:	fe042503          	lw	a0,-32(s0)
   1098c:	5fd000ef          	jal	ra,11788 <_Z11node_mallocii>
   10990:	00050793          	mv	a5,a0
   10994:	00078713          	mv	a4,a5
   10998:	fc842783          	lw	a5,-56(s0)
   1099c:	00e7a423          	sw	a4,8(a5)
   109a0:	fc842783          	lw	a5,-56(s0)
   109a4:	0087a783          	lw	a5,8(a5)
   109a8:	00039737          	lui	a4,0x39
   109ac:	34870713          	addi	a4,a4,840 # 39348 <nodes>
   109b0:	fe042683          	lw	a3,-32(s0)
   109b4:	00a69693          	slli	a3,a3,0xa
   109b8:	00f687b3          	add	a5,a3,a5
   109bc:	00479793          	slli	a5,a5,0x4
   109c0:	00f707b3          	add	a5,a4,a5
   109c4:	fc042703          	lw	a4,-64(s0)
   109c8:	00072583          	lw	a1,0(a4)
   109cc:	00472603          	lw	a2,4(a4)
   109d0:	00872683          	lw	a3,8(a4)
   109d4:	00c72703          	lw	a4,12(a4)
   109d8:	00b7a023          	sw	a1,0(a5)
   109dc:	00c7a223          	sw	a2,4(a5)
   109e0:	00d7a423          	sw	a3,8(a5)
   109e4:	00e7a623          	sw	a4,12(a5)
   109e8:	1740006f          	j	10b5c <_Z12_insert_nodeiP8TrieNodejS0_+0x234>
   109ec:	fc842783          	lw	a5,-56(s0)
   109f0:	0007a783          	lw	a5,0(a5)
   109f4:	fcf42e23          	sw	a5,-36(s0)
   109f8:	fdc42783          	lw	a5,-36(s0)
   109fc:	00178793          	addi	a5,a5,1
   10a00:	00078593          	mv	a1,a5
   10a04:	fe042503          	lw	a0,-32(s0)
   10a08:	581000ef          	jal	ra,11788 <_Z11node_mallocii>
   10a0c:	00050793          	mv	a5,a0
   10a10:	fcf42c23          	sw	a5,-40(s0)
   10a14:	fe042623          	sw	zero,-20(s0)
   10a18:	fc842783          	lw	a5,-56(s0)
   10a1c:	0087a783          	lw	a5,8(a5)
   10a20:	fef42423          	sw	a5,-24(s0)
   10a24:	fd842783          	lw	a5,-40(s0)
   10a28:	fef42223          	sw	a5,-28(s0)
   10a2c:	fec42703          	lw	a4,-20(s0)
   10a30:	00f00793          	li	a5,15
   10a34:	10e7e263          	bltu	a5,a4,10b38 <_Z12_insert_nodeiP8TrieNodejS0_+0x210>
   10a38:	fec42703          	lw	a4,-20(s0)
   10a3c:	fc442783          	lw	a5,-60(s0)
   10a40:	04f71c63          	bne	a4,a5,10a98 <_Z12_insert_nodeiP8TrieNodejS0_+0x170>
   10a44:	000397b7          	lui	a5,0x39
   10a48:	34878713          	addi	a4,a5,840 # 39348 <nodes>
   10a4c:	fe042783          	lw	a5,-32(s0)
   10a50:	00a79693          	slli	a3,a5,0xa
   10a54:	fe442783          	lw	a5,-28(s0)
   10a58:	00f687b3          	add	a5,a3,a5
   10a5c:	00479793          	slli	a5,a5,0x4
   10a60:	00f707b3          	add	a5,a4,a5
   10a64:	fc042703          	lw	a4,-64(s0)
   10a68:	00072583          	lw	a1,0(a4)
   10a6c:	00472603          	lw	a2,4(a4)
   10a70:	00872683          	lw	a3,8(a4)
   10a74:	00c72703          	lw	a4,12(a4)
   10a78:	00b7a023          	sw	a1,0(a5)
   10a7c:	00c7a223          	sw	a2,4(a5)
   10a80:	00d7a423          	sw	a3,8(a5)
   10a84:	00e7a623          	sw	a4,12(a5)
   10a88:	fe442783          	lw	a5,-28(s0)
   10a8c:	00178793          	addi	a5,a5,1
   10a90:	fef42223          	sw	a5,-28(s0)
   10a94:	0940006f          	j	10b28 <_Z12_insert_nodeiP8TrieNodejS0_+0x200>
   10a98:	fc842783          	lw	a5,-56(s0)
   10a9c:	0007a703          	lw	a4,0(a5)
   10aa0:	fec42783          	lw	a5,-20(s0)
   10aa4:	00f757b3          	srl	a5,a4,a5
   10aa8:	0017f793          	andi	a5,a5,1
   10aac:	06078e63          	beqz	a5,10b28 <_Z12_insert_nodeiP8TrieNodejS0_+0x200>
   10ab0:	000397b7          	lui	a5,0x39
   10ab4:	34878713          	addi	a4,a5,840 # 39348 <nodes>
   10ab8:	fe042783          	lw	a5,-32(s0)
   10abc:	00a79693          	slli	a3,a5,0xa
   10ac0:	fe442783          	lw	a5,-28(s0)
   10ac4:	00f687b3          	add	a5,a3,a5
   10ac8:	00479793          	slli	a5,a5,0x4
   10acc:	00f707b3          	add	a5,a4,a5
   10ad0:	00039737          	lui	a4,0x39
   10ad4:	34870693          	addi	a3,a4,840 # 39348 <nodes>
   10ad8:	fe042703          	lw	a4,-32(s0)
   10adc:	00a71613          	slli	a2,a4,0xa
   10ae0:	fe842703          	lw	a4,-24(s0)
   10ae4:	00e60733          	add	a4,a2,a4
   10ae8:	00471713          	slli	a4,a4,0x4
   10aec:	00e68733          	add	a4,a3,a4
   10af0:	00072583          	lw	a1,0(a4)
   10af4:	00472603          	lw	a2,4(a4)
   10af8:	00872683          	lw	a3,8(a4)
   10afc:	00c72703          	lw	a4,12(a4)
   10b00:	00b7a023          	sw	a1,0(a5)
   10b04:	00c7a223          	sw	a2,4(a5)
   10b08:	00d7a423          	sw	a3,8(a5)
   10b0c:	00e7a623          	sw	a4,12(a5)
   10b10:	fe442783          	lw	a5,-28(s0)
   10b14:	00178793          	addi	a5,a5,1
   10b18:	fef42223          	sw	a5,-28(s0)
   10b1c:	fe842783          	lw	a5,-24(s0)
   10b20:	00178793          	addi	a5,a5,1
   10b24:	fef42423          	sw	a5,-24(s0)
   10b28:	fec42783          	lw	a5,-20(s0)
   10b2c:	00178793          	addi	a5,a5,1
   10b30:	fef42623          	sw	a5,-20(s0)
   10b34:	ef9ff06f          	j	10a2c <_Z12_insert_nodeiP8TrieNodejS0_+0x104>
   10b38:	fc842783          	lw	a5,-56(s0)
   10b3c:	0087a783          	lw	a5,8(a5)
   10b40:	fdc42603          	lw	a2,-36(s0)
   10b44:	00078593          	mv	a1,a5
   10b48:	fe042503          	lw	a0,-32(s0)
   10b4c:	579000ef          	jal	ra,118c4 <_Z9node_freeiii>
   10b50:	fd842703          	lw	a4,-40(s0)
   10b54:	fc842783          	lw	a5,-56(s0)
   10b58:	00e7a423          	sw	a4,8(a5)
   10b5c:	fc842783          	lw	a5,-56(s0)
   10b60:	0007a703          	lw	a4,0(a5)
   10b64:	fc442783          	lw	a5,-60(s0)
   10b68:	00100693          	li	a3,1
   10b6c:	00f697b3          	sll	a5,a3,a5
   10b70:	00f76733          	or	a4,a4,a5
   10b74:	fc842783          	lw	a5,-56(s0)
   10b78:	00e7a023          	sw	a4,0(a5)
   10b7c:	00000013          	nop
   10b80:	03c12083          	lw	ra,60(sp)
   10b84:	03812403          	lw	s0,56(sp)
   10b88:	04010113          	addi	sp,sp,64
   10b8c:	00008067          	ret

00010b90 <_Z12_insert_leafiP8TrieNodejj>:
   10b90:	fc010113          	addi	sp,sp,-64
   10b94:	02112e23          	sw	ra,60(sp)
   10b98:	02812c23          	sw	s0,56(sp)
   10b9c:	04010413          	addi	s0,sp,64
   10ba0:	fca42623          	sw	a0,-52(s0)
   10ba4:	fcb42423          	sw	a1,-56(s0)
   10ba8:	fcc42223          	sw	a2,-60(s0)
   10bac:	fcd42023          	sw	a3,-64(s0)
   10bb0:	fc842783          	lw	a5,-56(s0)
   10bb4:	0047a783          	lw	a5,4(a5)
   10bb8:	fef42023          	sw	a5,-32(s0)
   10bbc:	fe042783          	lw	a5,-32(s0)
   10bc0:	04079063          	bnez	a5,10c00 <_Z12_insert_leafiP8TrieNodejj+0x70>
   10bc4:	00100513          	li	a0,1
   10bc8:	5b5000ef          	jal	ra,1197c <_Z11leaf_malloci>
   10bcc:	00050793          	mv	a5,a0
   10bd0:	00078713          	mv	a4,a5
   10bd4:	fc842783          	lw	a5,-56(s0)
   10bd8:	00e7a623          	sw	a4,12(a5)
   10bdc:	fc842783          	lw	a5,-56(s0)
   10be0:	00c7a783          	lw	a5,12(a5)
   10be4:	00059737          	lui	a4,0x59
   10be8:	34870713          	addi	a4,a4,840 # 59348 <leafs>
   10bec:	00279793          	slli	a5,a5,0x2
   10bf0:	00f707b3          	add	a5,a4,a5
   10bf4:	fc042703          	lw	a4,-64(s0)
   10bf8:	00e7a023          	sw	a4,0(a5)
   10bfc:	10c0006f          	j	10d08 <_Z12_insert_leafiP8TrieNodejj+0x178>
   10c00:	fe042783          	lw	a5,-32(s0)
   10c04:	00178793          	addi	a5,a5,1
   10c08:	00078513          	mv	a0,a5
   10c0c:	571000ef          	jal	ra,1197c <_Z11leaf_malloci>
   10c10:	00050793          	mv	a5,a0
   10c14:	fcf42e23          	sw	a5,-36(s0)
   10c18:	00100793          	li	a5,1
   10c1c:	fef42623          	sw	a5,-20(s0)
   10c20:	fc842783          	lw	a5,-56(s0)
   10c24:	00c7a783          	lw	a5,12(a5)
   10c28:	fef42423          	sw	a5,-24(s0)
   10c2c:	fdc42783          	lw	a5,-36(s0)
   10c30:	fef42223          	sw	a5,-28(s0)
   10c34:	fec42703          	lw	a4,-20(s0)
   10c38:	00f00793          	li	a5,15
   10c3c:	0ae7e663          	bltu	a5,a4,10ce8 <_Z12_insert_leafiP8TrieNodejj+0x158>
   10c40:	fec42703          	lw	a4,-20(s0)
   10c44:	fc442783          	lw	a5,-60(s0)
   10c48:	02f71863          	bne	a4,a5,10c78 <_Z12_insert_leafiP8TrieNodejj+0xe8>
   10c4c:	000597b7          	lui	a5,0x59
   10c50:	34878713          	addi	a4,a5,840 # 59348 <leafs>
   10c54:	fe442783          	lw	a5,-28(s0)
   10c58:	00279793          	slli	a5,a5,0x2
   10c5c:	00f707b3          	add	a5,a4,a5
   10c60:	fc042703          	lw	a4,-64(s0)
   10c64:	00e7a023          	sw	a4,0(a5)
   10c68:	fe442783          	lw	a5,-28(s0)
   10c6c:	00178793          	addi	a5,a5,1
   10c70:	fef42223          	sw	a5,-28(s0)
   10c74:	0640006f          	j	10cd8 <_Z12_insert_leafiP8TrieNodejj+0x148>
   10c78:	fc842783          	lw	a5,-56(s0)
   10c7c:	0047a703          	lw	a4,4(a5)
   10c80:	fec42783          	lw	a5,-20(s0)
   10c84:	00f757b3          	srl	a5,a4,a5
   10c88:	0017f793          	andi	a5,a5,1
   10c8c:	04078663          	beqz	a5,10cd8 <_Z12_insert_leafiP8TrieNodejj+0x148>
   10c90:	000597b7          	lui	a5,0x59
   10c94:	34878713          	addi	a4,a5,840 # 59348 <leafs>
   10c98:	fe842783          	lw	a5,-24(s0)
   10c9c:	00279793          	slli	a5,a5,0x2
   10ca0:	00f707b3          	add	a5,a4,a5
   10ca4:	0007a703          	lw	a4,0(a5)
   10ca8:	000597b7          	lui	a5,0x59
   10cac:	34878693          	addi	a3,a5,840 # 59348 <leafs>
   10cb0:	fe442783          	lw	a5,-28(s0)
   10cb4:	00279793          	slli	a5,a5,0x2
   10cb8:	00f687b3          	add	a5,a3,a5
   10cbc:	00e7a023          	sw	a4,0(a5)
   10cc0:	fe442783          	lw	a5,-28(s0)
   10cc4:	00178793          	addi	a5,a5,1
   10cc8:	fef42223          	sw	a5,-28(s0)
   10ccc:	fe842783          	lw	a5,-24(s0)
   10cd0:	00178793          	addi	a5,a5,1
   10cd4:	fef42423          	sw	a5,-24(s0)
   10cd8:	fec42783          	lw	a5,-20(s0)
   10cdc:	00178793          	addi	a5,a5,1
   10ce0:	fef42623          	sw	a5,-20(s0)
   10ce4:	f51ff06f          	j	10c34 <_Z12_insert_leafiP8TrieNodejj+0xa4>
   10ce8:	fc842783          	lw	a5,-56(s0)
   10cec:	00c7a783          	lw	a5,12(a5)
   10cf0:	fe042583          	lw	a1,-32(s0)
   10cf4:	00078513          	mv	a0,a5
   10cf8:	539000ef          	jal	ra,11a30 <_Z9leaf_freeii>
   10cfc:	fdc42703          	lw	a4,-36(s0)
   10d00:	fc842783          	lw	a5,-56(s0)
   10d04:	00e7a623          	sw	a4,12(a5)
   10d08:	fc842783          	lw	a5,-56(s0)
   10d0c:	0047a703          	lw	a4,4(a5)
   10d10:	fc442783          	lw	a5,-60(s0)
   10d14:	00100693          	li	a3,1
   10d18:	00f697b3          	sll	a5,a3,a5
   10d1c:	00f76733          	or	a4,a4,a5
   10d20:	fc842783          	lw	a5,-56(s0)
   10d24:	00e7a223          	sw	a4,4(a5)
   10d28:	00000013          	nop
   10d2c:	03c12083          	lw	ra,60(sp)
   10d30:	03812403          	lw	s0,56(sp)
   10d34:	04010113          	addi	sp,sp,64
   10d38:	00008067          	ret

00010d3c <_Z12_remove_leafiP8TrieNodej>:
   10d3c:	fd010113          	addi	sp,sp,-48
   10d40:	02112623          	sw	ra,44(sp)
   10d44:	02812423          	sw	s0,40(sp)
   10d48:	03010413          	addi	s0,sp,48
   10d4c:	fca42e23          	sw	a0,-36(s0)
   10d50:	fcb42c23          	sw	a1,-40(s0)
   10d54:	fcc42a23          	sw	a2,-44(s0)
   10d58:	fd842783          	lw	a5,-40(s0)
   10d5c:	0047a703          	lw	a4,4(a5)
   10d60:	fd442783          	lw	a5,-44(s0)
   10d64:	00200693          	li	a3,2
   10d68:	00f697b3          	sll	a5,a3,a5
   10d6c:	fff78793          	addi	a5,a5,-1
   10d70:	00f777b3          	and	a5,a4,a5
   10d74:	fef42623          	sw	a5,-20(s0)
   10d78:	fec42703          	lw	a4,-20(s0)
   10d7c:	00100793          	li	a5,1
   10d80:	02e7c863          	blt	a5,a4,10db0 <_Z12_remove_leafiP8TrieNodej+0x74>
   10d84:	fd842783          	lw	a5,-40(s0)
   10d88:	00c7a783          	lw	a5,12(a5)
   10d8c:	00100593          	li	a1,1
   10d90:	00078513          	mv	a0,a5
   10d94:	49d000ef          	jal	ra,11a30 <_Z9leaf_freeii>
   10d98:	fd842783          	lw	a5,-40(s0)
   10d9c:	00c7a783          	lw	a5,12(a5)
   10da0:	00178713          	addi	a4,a5,1
   10da4:	fd842783          	lw	a5,-40(s0)
   10da8:	00e7a623          	sw	a4,12(a5)
   10dac:	0a80006f          	j	10e54 <_Z12_remove_leafiP8TrieNodej+0x118>
   10db0:	fd842783          	lw	a5,-40(s0)
   10db4:	00c7a703          	lw	a4,12(a5)
   10db8:	fec42783          	lw	a5,-20(s0)
   10dbc:	00f707b3          	add	a5,a4,a5
   10dc0:	fff78793          	addi	a5,a5,-1
   10dc4:	fef42623          	sw	a5,-20(s0)
   10dc8:	fd442783          	lw	a5,-44(s0)
   10dcc:	00178793          	addi	a5,a5,1
   10dd0:	fef42423          	sw	a5,-24(s0)
   10dd4:	fe842703          	lw	a4,-24(s0)
   10dd8:	00f00793          	li	a5,15
   10ddc:	06e7e663          	bltu	a5,a4,10e48 <_Z12_remove_leafiP8TrieNodej+0x10c>
   10de0:	fd842783          	lw	a5,-40(s0)
   10de4:	0047a703          	lw	a4,4(a5)
   10de8:	fe842783          	lw	a5,-24(s0)
   10dec:	00f757b3          	srl	a5,a4,a5
   10df0:	0017f793          	andi	a5,a5,1
   10df4:	04078263          	beqz	a5,10e38 <_Z12_remove_leafiP8TrieNodej+0xfc>
   10df8:	fec42783          	lw	a5,-20(s0)
   10dfc:	00178793          	addi	a5,a5,1
   10e00:	00059737          	lui	a4,0x59
   10e04:	34870713          	addi	a4,a4,840 # 59348 <leafs>
   10e08:	00279793          	slli	a5,a5,0x2
   10e0c:	00f707b3          	add	a5,a4,a5
   10e10:	0007a703          	lw	a4,0(a5)
   10e14:	000597b7          	lui	a5,0x59
   10e18:	34878693          	addi	a3,a5,840 # 59348 <leafs>
   10e1c:	fec42783          	lw	a5,-20(s0)
   10e20:	00279793          	slli	a5,a5,0x2
   10e24:	00f687b3          	add	a5,a3,a5
   10e28:	00e7a023          	sw	a4,0(a5)
   10e2c:	fec42783          	lw	a5,-20(s0)
   10e30:	00178793          	addi	a5,a5,1
   10e34:	fef42623          	sw	a5,-20(s0)
   10e38:	fe842783          	lw	a5,-24(s0)
   10e3c:	00178793          	addi	a5,a5,1
   10e40:	fef42423          	sw	a5,-24(s0)
   10e44:	f91ff06f          	j	10dd4 <_Z12_remove_leafiP8TrieNodej+0x98>
   10e48:	00100593          	li	a1,1
   10e4c:	fec42503          	lw	a0,-20(s0)
   10e50:	3e1000ef          	jal	ra,11a30 <_Z9leaf_freeii>
   10e54:	fd842783          	lw	a5,-40(s0)
   10e58:	0047a703          	lw	a4,4(a5)
   10e5c:	fd442783          	lw	a5,-44(s0)
   10e60:	00100693          	li	a3,1
   10e64:	00f697b3          	sll	a5,a3,a5
   10e68:	fff7c793          	not	a5,a5
   10e6c:	00f77733          	and	a4,a4,a5
   10e70:	fd842783          	lw	a5,-40(s0)
   10e74:	00e7a223          	sw	a4,4(a5)
   10e78:	00000013          	nop
   10e7c:	02c12083          	lw	ra,44(sp)
   10e80:	02812403          	lw	s0,40(sp)
   10e84:	03010113          	addi	sp,sp,48
   10e88:	00008067          	ret

00010e8c <_Z12insert_entryiP8TrieNode8in6_addrij>:
   10e8c:	fb010113          	addi	sp,sp,-80
   10e90:	04112623          	sw	ra,76(sp)
   10e94:	04812423          	sw	s0,72(sp)
   10e98:	04912223          	sw	s1,68(sp)
   10e9c:	05010413          	addi	s0,sp,80
   10ea0:	fca42623          	sw	a0,-52(s0)
   10ea4:	fcb42423          	sw	a1,-56(s0)
   10ea8:	00060493          	mv	s1,a2
   10eac:	fcd42223          	sw	a3,-60(s0)
   10eb0:	fce42023          	sw	a4,-64(s0)
   10eb4:	fcc42783          	lw	a5,-52(s0)
   10eb8:	00378793          	addi	a5,a5,3
   10ebc:	fc442703          	lw	a4,-60(s0)
   10ec0:	0ce7cc63          	blt	a5,a4,10f98 <_Z12insert_entryiP8TrieNode8in6_addrij+0x10c>
   10ec4:	fc442703          	lw	a4,-60(s0)
   10ec8:	fcc42783          	lw	a5,-52(s0)
   10ecc:	40f707b3          	sub	a5,a4,a5
   10ed0:	fcf42e23          	sw	a5,-36(s0)
   10ed4:	0004a603          	lw	a2,0(s1)
   10ed8:	0044a683          	lw	a3,4(s1)
   10edc:	0084a703          	lw	a4,8(s1)
   10ee0:	00c4a783          	lw	a5,12(s1)
   10ee4:	fac42823          	sw	a2,-80(s0)
   10ee8:	fad42a23          	sw	a3,-76(s0)
   10eec:	fae42c23          	sw	a4,-72(s0)
   10ef0:	faf42e23          	sw	a5,-68(s0)
   10ef4:	fb040793          	addi	a5,s0,-80
   10ef8:	fdc42603          	lw	a2,-36(s0)
   10efc:	fcc42583          	lw	a1,-52(s0)
   10f00:	00078513          	mv	a0,a5
   10f04:	e6cff0ef          	jal	ra,10570 <_ZL5INDEX8in6_addrii>
   10f08:	00050693          	mv	a3,a0
   10f0c:	fdc42783          	lw	a5,-36(s0)
   10f10:	00100713          	li	a4,1
   10f14:	00f717b3          	sll	a5,a4,a5
   10f18:	00f6e7b3          	or	a5,a3,a5
   10f1c:	fcf42c23          	sw	a5,-40(s0)
   10f20:	fc842783          	lw	a5,-56(s0)
   10f24:	0047a703          	lw	a4,4(a5)
   10f28:	fd842783          	lw	a5,-40(s0)
   10f2c:	00f757b3          	srl	a5,a4,a5
   10f30:	0017f793          	andi	a5,a5,1
   10f34:	04078663          	beqz	a5,10f80 <_Z12insert_entryiP8TrieNode8in6_addrij+0xf4>
   10f38:	fc842783          	lw	a5,-56(s0)
   10f3c:	00c7a703          	lw	a4,12(a5)
   10f40:	fc842783          	lw	a5,-56(s0)
   10f44:	0047a683          	lw	a3,4(a5)
   10f48:	fd842783          	lw	a5,-40(s0)
   10f4c:	00200613          	li	a2,2
   10f50:	00f617b3          	sll	a5,a2,a5
   10f54:	fff78793          	addi	a5,a5,-1
   10f58:	00f6f7b3          	and	a5,a3,a5
   10f5c:	00f707b3          	add	a5,a4,a5
   10f60:	fff78793          	addi	a5,a5,-1
   10f64:	00059737          	lui	a4,0x59
   10f68:	34870713          	addi	a4,a4,840 # 59348 <leafs>
   10f6c:	00279793          	slli	a5,a5,0x2
   10f70:	00f707b3          	add	a5,a4,a5
   10f74:	fc042703          	lw	a4,-64(s0)
   10f78:	00e7a023          	sw	a4,0(a5)
   10f7c:	1dc0006f          	j	11158 <_Z12insert_entryiP8TrieNode8in6_addrij+0x2cc>
   10f80:	fc042683          	lw	a3,-64(s0)
   10f84:	fd842603          	lw	a2,-40(s0)
   10f88:	fc842583          	lw	a1,-56(s0)
   10f8c:	fcc42503          	lw	a0,-52(s0)
   10f90:	c01ff0ef          	jal	ra,10b90 <_Z12_insert_leafiP8TrieNodejj>
   10f94:	1c40006f          	j	11158 <_Z12insert_entryiP8TrieNode8in6_addrij+0x2cc>
   10f98:	0004a603          	lw	a2,0(s1)
   10f9c:	0044a683          	lw	a3,4(s1)
   10fa0:	0084a703          	lw	a4,8(s1)
   10fa4:	00c4a783          	lw	a5,12(s1)
   10fa8:	fac42823          	sw	a2,-80(s0)
   10fac:	fad42a23          	sw	a3,-76(s0)
   10fb0:	fae42c23          	sw	a4,-72(s0)
   10fb4:	faf42e23          	sw	a5,-68(s0)
   10fb8:	fb040793          	addi	a5,s0,-80
   10fbc:	00400613          	li	a2,4
   10fc0:	fcc42583          	lw	a1,-52(s0)
   10fc4:	00078513          	mv	a0,a5
   10fc8:	da8ff0ef          	jal	ra,10570 <_ZL5INDEX8in6_addrii>
   10fcc:	fea42623          	sw	a0,-20(s0)
   10fd0:	fc842783          	lw	a5,-56(s0)
   10fd4:	0087a703          	lw	a4,8(a5)
   10fd8:	010007b7          	lui	a5,0x1000
   10fdc:	00f777b3          	and	a5,a4,a5
   10fe0:	02078063          	beqz	a5,11000 <_Z12insert_entryiP8TrieNode8in6_addrij+0x174>
   10fe4:	fcc42783          	lw	a5,-52(s0)
   10fe8:	00478793          	addi	a5,a5,4 # 1000004 <__BSS_END__+0xfa5094>
   10fec:	fc442703          	lw	a4,-60(s0)
   10ff0:	00f70863          	beq	a4,a5,11000 <_Z12insert_entryiP8TrieNode8in6_addrij+0x174>
   10ff4:	fc842783          	lw	a5,-56(s0)
   10ff8:	0007a783          	lw	a5,0(a5)
   10ffc:	fef42423          	sw	a5,-24(s0)
   11000:	fc842783          	lw	a5,-56(s0)
   11004:	0007a703          	lw	a4,0(a5)
   11008:	fec42783          	lw	a5,-20(s0)
   1100c:	00f757b3          	srl	a5,a4,a5
   11010:	0017f793          	andi	a5,a5,1
   11014:	0a078663          	beqz	a5,110c0 <_Z12insert_entryiP8TrieNode8in6_addrij+0x234>
   11018:	fcc42783          	lw	a5,-52(s0)
   1101c:	00478793          	addi	a5,a5,4
   11020:	41f7d713          	srai	a4,a5,0x1f
   11024:	00f77713          	andi	a4,a4,15
   11028:	00f707b3          	add	a5,a4,a5
   1102c:	4047d793          	srai	a5,a5,0x4
   11030:	00078593          	mv	a1,a5
   11034:	fc842783          	lw	a5,-56(s0)
   11038:	0087a703          	lw	a4,8(a5)
   1103c:	fc842783          	lw	a5,-56(s0)
   11040:	0007a683          	lw	a3,0(a5)
   11044:	fec42783          	lw	a5,-20(s0)
   11048:	00200613          	li	a2,2
   1104c:	00f617b3          	sll	a5,a2,a5
   11050:	fff78793          	addi	a5,a5,-1
   11054:	00f6f7b3          	and	a5,a3,a5
   11058:	00f707b3          	add	a5,a4,a5
   1105c:	fff78793          	addi	a5,a5,-1
   11060:	00a59713          	slli	a4,a1,0xa
   11064:	00f707b3          	add	a5,a4,a5
   11068:	00479713          	slli	a4,a5,0x4
   1106c:	000397b7          	lui	a5,0x39
   11070:	34878793          	addi	a5,a5,840 # 39348 <nodes>
   11074:	00f707b3          	add	a5,a4,a5
   11078:	fef42023          	sw	a5,-32(s0)
   1107c:	fcc42783          	lw	a5,-52(s0)
   11080:	00478513          	addi	a0,a5,4
   11084:	0004a603          	lw	a2,0(s1)
   11088:	0044a683          	lw	a3,4(s1)
   1108c:	0084a703          	lw	a4,8(s1)
   11090:	00c4a783          	lw	a5,12(s1)
   11094:	fac42823          	sw	a2,-80(s0)
   11098:	fad42a23          	sw	a3,-76(s0)
   1109c:	fae42c23          	sw	a4,-72(s0)
   110a0:	faf42e23          	sw	a5,-68(s0)
   110a4:	fb040793          	addi	a5,s0,-80
   110a8:	fc042703          	lw	a4,-64(s0)
   110ac:	fc442683          	lw	a3,-60(s0)
   110b0:	00078613          	mv	a2,a5
   110b4:	fe042583          	lw	a1,-32(s0)
   110b8:	dd5ff0ef          	jal	ra,10e8c <_Z12insert_entryiP8TrieNode8in6_addrij>
   110bc:	09c0006f          	j	11158 <_Z12insert_entryiP8TrieNode8in6_addrij+0x2cc>
   110c0:	fcc42783          	lw	a5,-52(s0)
   110c4:	41f7d713          	srai	a4,a5,0x1f
   110c8:	00377713          	andi	a4,a4,3
   110cc:	00f707b3          	add	a5,a4,a5
   110d0:	4027d793          	srai	a5,a5,0x2
   110d4:	00178793          	addi	a5,a5,1
   110d8:	00479713          	slli	a4,a5,0x4
   110dc:	0005b7b7          	lui	a5,0x5b
   110e0:	94878793          	addi	a5,a5,-1720 # 5a948 <stk>
   110e4:	00f707b3          	add	a5,a4,a5
   110e8:	fef42223          	sw	a5,-28(s0)
   110ec:	fe442783          	lw	a5,-28(s0)
   110f0:	0007a223          	sw	zero,4(a5)
   110f4:	fe442783          	lw	a5,-28(s0)
   110f8:	0047a703          	lw	a4,4(a5)
   110fc:	fe442783          	lw	a5,-28(s0)
   11100:	00e7a023          	sw	a4,0(a5)
   11104:	fcc42783          	lw	a5,-52(s0)
   11108:	00478513          	addi	a0,a5,4
   1110c:	0004a603          	lw	a2,0(s1)
   11110:	0044a683          	lw	a3,4(s1)
   11114:	0084a703          	lw	a4,8(s1)
   11118:	00c4a783          	lw	a5,12(s1)
   1111c:	fac42823          	sw	a2,-80(s0)
   11120:	fad42a23          	sw	a3,-76(s0)
   11124:	fae42c23          	sw	a4,-72(s0)
   11128:	faf42e23          	sw	a5,-68(s0)
   1112c:	fb040793          	addi	a5,s0,-80
   11130:	fc042703          	lw	a4,-64(s0)
   11134:	fc442683          	lw	a3,-60(s0)
   11138:	00078613          	mv	a2,a5
   1113c:	fe442583          	lw	a1,-28(s0)
   11140:	d4dff0ef          	jal	ra,10e8c <_Z12insert_entryiP8TrieNode8in6_addrij>
   11144:	fe442683          	lw	a3,-28(s0)
   11148:	fec42603          	lw	a2,-20(s0)
   1114c:	fc842583          	lw	a1,-56(s0)
   11150:	fcc42503          	lw	a0,-52(s0)
   11154:	fd4ff0ef          	jal	ra,10928 <_Z12_insert_nodeiP8TrieNodejS0_>
   11158:	00000013          	nop
   1115c:	04c12083          	lw	ra,76(sp)
   11160:	04812403          	lw	s0,72(sp)
   11164:	04412483          	lw	s1,68(sp)
   11168:	05010113          	addi	sp,sp,80
   1116c:	00008067          	ret

00011170 <_Z12remove_entryii8in6_addri>:
   11170:	fc010113          	addi	sp,sp,-64
   11174:	02112e23          	sw	ra,60(sp)
   11178:	02812c23          	sw	s0,56(sp)
   1117c:	02912a23          	sw	s1,52(sp)
   11180:	04010413          	addi	s0,sp,64
   11184:	fca42e23          	sw	a0,-36(s0)
   11188:	fcb42c23          	sw	a1,-40(s0)
   1118c:	00060493          	mv	s1,a2
   11190:	fcd42a23          	sw	a3,-44(s0)
   11194:	fdc42783          	lw	a5,-36(s0)
   11198:	41f7d713          	srai	a4,a5,0x1f
   1119c:	00f77713          	andi	a4,a4,15
   111a0:	00f707b3          	add	a5,a4,a5
   111a4:	4047d793          	srai	a5,a5,0x4
   111a8:	00a79713          	slli	a4,a5,0xa
   111ac:	fd842783          	lw	a5,-40(s0)
   111b0:	00f707b3          	add	a5,a4,a5
   111b4:	00479713          	slli	a4,a5,0x4
   111b8:	000397b7          	lui	a5,0x39
   111bc:	34878793          	addi	a5,a5,840 # 39348 <nodes>
   111c0:	00f707b3          	add	a5,a4,a5
   111c4:	fef42623          	sw	a5,-20(s0)
   111c8:	fdc42783          	lw	a5,-36(s0)
   111cc:	00378793          	addi	a5,a5,3
   111d0:	fd442703          	lw	a4,-44(s0)
   111d4:	08e7c663          	blt	a5,a4,11260 <_Z12remove_entryii8in6_addri+0xf0>
   111d8:	fd442703          	lw	a4,-44(s0)
   111dc:	fdc42783          	lw	a5,-36(s0)
   111e0:	40f707b3          	sub	a5,a4,a5
   111e4:	fef42223          	sw	a5,-28(s0)
   111e8:	0004a603          	lw	a2,0(s1)
   111ec:	0044a683          	lw	a3,4(s1)
   111f0:	0084a703          	lw	a4,8(s1)
   111f4:	00c4a783          	lw	a5,12(s1)
   111f8:	fcc42023          	sw	a2,-64(s0)
   111fc:	fcd42223          	sw	a3,-60(s0)
   11200:	fce42423          	sw	a4,-56(s0)
   11204:	fcf42623          	sw	a5,-52(s0)
   11208:	fc040793          	addi	a5,s0,-64
   1120c:	fe442603          	lw	a2,-28(s0)
   11210:	fdc42583          	lw	a1,-36(s0)
   11214:	00078513          	mv	a0,a5
   11218:	b58ff0ef          	jal	ra,10570 <_ZL5INDEX8in6_addrii>
   1121c:	00050693          	mv	a3,a0
   11220:	fe442783          	lw	a5,-28(s0)
   11224:	00100713          	li	a4,1
   11228:	00f717b3          	sll	a5,a4,a5
   1122c:	00f6e7b3          	or	a5,a3,a5
   11230:	fef42023          	sw	a5,-32(s0)
   11234:	fec42783          	lw	a5,-20(s0)
   11238:	0047a703          	lw	a4,4(a5)
   1123c:	fe042783          	lw	a5,-32(s0)
   11240:	00f757b3          	srl	a5,a4,a5
   11244:	0017f793          	andi	a5,a5,1
   11248:	0c078863          	beqz	a5,11318 <_Z12remove_entryii8in6_addri+0x1a8>
   1124c:	fe042603          	lw	a2,-32(s0)
   11250:	fec42583          	lw	a1,-20(s0)
   11254:	fdc42503          	lw	a0,-36(s0)
   11258:	ae5ff0ef          	jal	ra,10d3c <_Z12_remove_leafiP8TrieNodej>
   1125c:	0bc0006f          	j	11318 <_Z12remove_entryii8in6_addri+0x1a8>
   11260:	0004a603          	lw	a2,0(s1)
   11264:	0044a683          	lw	a3,4(s1)
   11268:	0084a703          	lw	a4,8(s1)
   1126c:	00c4a783          	lw	a5,12(s1)
   11270:	fcc42023          	sw	a2,-64(s0)
   11274:	fcd42223          	sw	a3,-60(s0)
   11278:	fce42423          	sw	a4,-56(s0)
   1127c:	fcf42623          	sw	a5,-52(s0)
   11280:	fc040793          	addi	a5,s0,-64
   11284:	00400613          	li	a2,4
   11288:	fdc42583          	lw	a1,-36(s0)
   1128c:	00078513          	mv	a0,a5
   11290:	ae0ff0ef          	jal	ra,10570 <_ZL5INDEX8in6_addrii>
   11294:	fea42423          	sw	a0,-24(s0)
   11298:	fec42783          	lw	a5,-20(s0)
   1129c:	0007a703          	lw	a4,0(a5)
   112a0:	fe842783          	lw	a5,-24(s0)
   112a4:	00f757b3          	srl	a5,a4,a5
   112a8:	0017f793          	andi	a5,a5,1
   112ac:	06078663          	beqz	a5,11318 <_Z12remove_entryii8in6_addri+0x1a8>
   112b0:	fdc42783          	lw	a5,-36(s0)
   112b4:	00478513          	addi	a0,a5,4
   112b8:	fec42783          	lw	a5,-20(s0)
   112bc:	0087a703          	lw	a4,8(a5)
   112c0:	fec42783          	lw	a5,-20(s0)
   112c4:	0007a683          	lw	a3,0(a5)
   112c8:	fe842783          	lw	a5,-24(s0)
   112cc:	00200613          	li	a2,2
   112d0:	00f617b3          	sll	a5,a2,a5
   112d4:	fff78793          	addi	a5,a5,-1
   112d8:	00f6f7b3          	and	a5,a3,a5
   112dc:	00f707b3          	add	a5,a4,a5
   112e0:	fff78793          	addi	a5,a5,-1
   112e4:	00078593          	mv	a1,a5
   112e8:	0004a603          	lw	a2,0(s1)
   112ec:	0044a683          	lw	a3,4(s1)
   112f0:	0084a703          	lw	a4,8(s1)
   112f4:	00c4a783          	lw	a5,12(s1)
   112f8:	fcc42023          	sw	a2,-64(s0)
   112fc:	fcd42223          	sw	a3,-60(s0)
   11300:	fce42423          	sw	a4,-56(s0)
   11304:	fcf42623          	sw	a5,-52(s0)
   11308:	fc040793          	addi	a5,s0,-64
   1130c:	fd442683          	lw	a3,-44(s0)
   11310:	00078613          	mv	a2,a5
   11314:	e5dff0ef          	jal	ra,11170 <_Z12remove_entryii8in6_addri>
   11318:	00000013          	nop
   1131c:	03c12083          	lw	ra,60(sp)
   11320:	03812403          	lw	s0,56(sp)
   11324:	03412483          	lw	s1,52(sp)
   11328:	04010113          	addi	sp,sp,64
   1132c:	00008067          	ret

00011330 <_Z6updateb17RoutingTableEntry>:
   11330:	fa010113          	addi	sp,sp,-96
   11334:	04112e23          	sw	ra,92(sp)
   11338:	04812c23          	sw	s0,88(sp)
   1133c:	04912a23          	sw	s1,84(sp)
   11340:	06010413          	addi	s0,sp,96
   11344:	00050793          	mv	a5,a0
   11348:	00058493          	mv	s1,a1
   1134c:	fcf40fa3          	sb	a5,-33(s0)
   11350:	fdf44783          	lbu	a5,-33(s0)
   11354:	0c078263          	beqz	a5,11418 <_Z6updateb17RoutingTableEntry+0xe8>
   11358:	0004ae83          	lw	t4,0(s1)
   1135c:	0044ae03          	lw	t3,4(s1)
   11360:	0084a303          	lw	t1,8(s1)
   11364:	00c4a883          	lw	a7,12(s1)
   11368:	0104a803          	lw	a6,16(s1)
   1136c:	0144a503          	lw	a0,20(s1)
   11370:	0184a583          	lw	a1,24(s1)
   11374:	01c4a603          	lw	a2,28(s1)
   11378:	0204a683          	lw	a3,32(s1)
   1137c:	0244a703          	lw	a4,36(s1)
   11380:	0284a783          	lw	a5,40(s1)
   11384:	fbd42023          	sw	t4,-96(s0)
   11388:	fbc42223          	sw	t3,-92(s0)
   1138c:	fa642423          	sw	t1,-88(s0)
   11390:	fb142623          	sw	a7,-84(s0)
   11394:	fb042823          	sw	a6,-80(s0)
   11398:	faa42a23          	sw	a0,-76(s0)
   1139c:	fab42c23          	sw	a1,-72(s0)
   113a0:	fac42e23          	sw	a2,-68(s0)
   113a4:	fcd42023          	sw	a3,-64(s0)
   113a8:	fce42223          	sw	a4,-60(s0)
   113ac:	fcf42423          	sw	a5,-56(s0)
   113b0:	fa040793          	addi	a5,s0,-96
   113b4:	00078513          	mv	a0,a5
   113b8:	b18ff0ef          	jal	ra,106d0 <_Z10_new_entry17RoutingTableEntry>
   113bc:	fea42623          	sw	a0,-20(s0)
   113c0:	9281a783          	lw	a5,-1752(gp) # 38f10 <node_root>
   113c4:	00479713          	slli	a4,a5,0x4
   113c8:	000397b7          	lui	a5,0x39
   113cc:	34878793          	addi	a5,a5,840 # 39348 <nodes>
   113d0:	00f705b3          	add	a1,a4,a5
   113d4:	0104a783          	lw	a5,16(s1)
   113d8:	00078513          	mv	a0,a5
   113dc:	0004a603          	lw	a2,0(s1)
   113e0:	0044a683          	lw	a3,4(s1)
   113e4:	0084a703          	lw	a4,8(s1)
   113e8:	00c4a783          	lw	a5,12(s1)
   113ec:	fac42023          	sw	a2,-96(s0)
   113f0:	fad42223          	sw	a3,-92(s0)
   113f4:	fae42423          	sw	a4,-88(s0)
   113f8:	faf42623          	sw	a5,-84(s0)
   113fc:	fa040793          	addi	a5,s0,-96
   11400:	fec42703          	lw	a4,-20(s0)
   11404:	00050693          	mv	a3,a0
   11408:	00078613          	mv	a2,a5
   1140c:	00000513          	li	a0,0
   11410:	a7dff0ef          	jal	ra,10e8c <_Z12insert_entryiP8TrieNode8in6_addrij>
   11414:	0440006f          	j	11458 <_Z6updateb17RoutingTableEntry+0x128>
   11418:	9281a583          	lw	a1,-1752(gp) # 38f10 <node_root>
   1141c:	0104a783          	lw	a5,16(s1)
   11420:	00078513          	mv	a0,a5
   11424:	0004a603          	lw	a2,0(s1)
   11428:	0044a683          	lw	a3,4(s1)
   1142c:	0084a703          	lw	a4,8(s1)
   11430:	00c4a783          	lw	a5,12(s1)
   11434:	fac42023          	sw	a2,-96(s0)
   11438:	fad42223          	sw	a3,-92(s0)
   1143c:	fae42423          	sw	a4,-88(s0)
   11440:	faf42623          	sw	a5,-84(s0)
   11444:	fa040793          	addi	a5,s0,-96
   11448:	00050693          	mv	a3,a0
   1144c:	00078613          	mv	a2,a5
   11450:	00000513          	li	a0,0
   11454:	d1dff0ef          	jal	ra,11170 <_Z12remove_entryii8in6_addri>
   11458:	00000013          	nop
   1145c:	05c12083          	lw	ra,92(sp)
   11460:	05812403          	lw	s0,88(sp)
   11464:	05412483          	lw	s1,84(sp)
   11468:	06010113          	addi	sp,sp,96
   1146c:	00008067          	ret

00011470 <_Z12prefix_query8in6_addrPS_PjS1_>:
   11470:	fb010113          	addi	sp,sp,-80
   11474:	04112623          	sw	ra,76(sp)
   11478:	04812423          	sw	s0,72(sp)
   1147c:	04912223          	sw	s1,68(sp)
   11480:	05010413          	addi	s0,sp,80
   11484:	00050493          	mv	s1,a0
   11488:	fcb42623          	sw	a1,-52(s0)
   1148c:	fcc42423          	sw	a2,-56(s0)
   11490:	fcd42223          	sw	a3,-60(s0)
   11494:	fff00793          	li	a5,-1
   11498:	fef42623          	sw	a5,-20(s0)
   1149c:	9281a783          	lw	a5,-1752(gp) # 38f10 <node_root>
   114a0:	00479713          	slli	a4,a5,0x4
   114a4:	000397b7          	lui	a5,0x39
   114a8:	34878793          	addi	a5,a5,840 # 39348 <nodes>
   114ac:	00f707b3          	add	a5,a4,a5
   114b0:	fef42423          	sw	a5,-24(s0)
   114b4:	fe042223          	sw	zero,-28(s0)
   114b8:	fe442703          	lw	a4,-28(s0)
   114bc:	07f00793          	li	a5,127
   114c0:	18e7c863          	blt	a5,a4,11650 <_Z12prefix_query8in6_addrPS_PjS1_+0x1e0>
   114c4:	0004a603          	lw	a2,0(s1)
   114c8:	0044a683          	lw	a3,4(s1)
   114cc:	0084a703          	lw	a4,8(s1)
   114d0:	00c4a783          	lw	a5,12(s1)
   114d4:	fac42823          	sw	a2,-80(s0)
   114d8:	fad42a23          	sw	a3,-76(s0)
   114dc:	fae42c23          	sw	a4,-72(s0)
   114e0:	faf42e23          	sw	a5,-68(s0)
   114e4:	fb040793          	addi	a5,s0,-80
   114e8:	00400613          	li	a2,4
   114ec:	fe442583          	lw	a1,-28(s0)
   114f0:	00078513          	mv	a0,a5
   114f4:	87cff0ef          	jal	ra,10570 <_ZL5INDEX8in6_addrii>
   114f8:	fca42e23          	sw	a0,-36(s0)
   114fc:	fdc42783          	lw	a5,-36(s0)
   11500:	0017d793          	srli	a5,a5,0x1
   11504:	0087e793          	ori	a5,a5,8
   11508:	fef42023          	sw	a5,-32(s0)
   1150c:	fe042783          	lw	a5,-32(s0)
   11510:	06078a63          	beqz	a5,11584 <_Z12prefix_query8in6_addrPS_PjS1_+0x114>
   11514:	fe842783          	lw	a5,-24(s0)
   11518:	0047a703          	lw	a4,4(a5)
   1151c:	fe042783          	lw	a5,-32(s0)
   11520:	00f757b3          	srl	a5,a4,a5
   11524:	0017f793          	andi	a5,a5,1
   11528:	04078663          	beqz	a5,11574 <_Z12prefix_query8in6_addrPS_PjS1_+0x104>
   1152c:	fe842783          	lw	a5,-24(s0)
   11530:	00c7a703          	lw	a4,12(a5)
   11534:	fe842783          	lw	a5,-24(s0)
   11538:	0047a683          	lw	a3,4(a5)
   1153c:	fe042783          	lw	a5,-32(s0)
   11540:	00200613          	li	a2,2
   11544:	00f617b3          	sll	a5,a2,a5
   11548:	fff78793          	addi	a5,a5,-1
   1154c:	00f6f7b3          	and	a5,a3,a5
   11550:	00f707b3          	add	a5,a4,a5
   11554:	fff78793          	addi	a5,a5,-1
   11558:	00059737          	lui	a4,0x59
   1155c:	34870713          	addi	a4,a4,840 # 59348 <leafs>
   11560:	00279793          	slli	a5,a5,0x2
   11564:	00f707b3          	add	a5,a4,a5
   11568:	0007a783          	lw	a5,0(a5)
   1156c:	fef42623          	sw	a5,-20(s0)
   11570:	0140006f          	j	11584 <_Z12prefix_query8in6_addrPS_PjS1_+0x114>
   11574:	fe042783          	lw	a5,-32(s0)
   11578:	0017d793          	srli	a5,a5,0x1
   1157c:	fef42023          	sw	a5,-32(s0)
   11580:	f8dff06f          	j	1150c <_Z12prefix_query8in6_addrPS_PjS1_+0x9c>
   11584:	fe842783          	lw	a5,-24(s0)
   11588:	0007a703          	lw	a4,0(a5)
   1158c:	fdc42783          	lw	a5,-36(s0)
   11590:	00f757b3          	srl	a5,a4,a5
   11594:	0017f793          	andi	a5,a5,1
   11598:	0a078a63          	beqz	a5,1164c <_Z12prefix_query8in6_addrPS_PjS1_+0x1dc>
   1159c:	fe442783          	lw	a5,-28(s0)
   115a0:	00478793          	addi	a5,a5,4
   115a4:	41f7d713          	srai	a4,a5,0x1f
   115a8:	00f77713          	andi	a4,a4,15
   115ac:	00f707b3          	add	a5,a4,a5
   115b0:	4047d793          	srai	a5,a5,0x4
   115b4:	00078593          	mv	a1,a5
   115b8:	fe842783          	lw	a5,-24(s0)
   115bc:	0087a703          	lw	a4,8(a5)
   115c0:	fe842783          	lw	a5,-24(s0)
   115c4:	0007a683          	lw	a3,0(a5)
   115c8:	fdc42783          	lw	a5,-36(s0)
   115cc:	00200613          	li	a2,2
   115d0:	00f617b3          	sll	a5,a2,a5
   115d4:	fff78793          	addi	a5,a5,-1
   115d8:	00f6f7b3          	and	a5,a3,a5
   115dc:	00f707b3          	add	a5,a4,a5
   115e0:	fff78793          	addi	a5,a5,-1
   115e4:	00a59713          	slli	a4,a1,0xa
   115e8:	00f707b3          	add	a5,a4,a5
   115ec:	00479713          	slli	a4,a5,0x4
   115f0:	000397b7          	lui	a5,0x39
   115f4:	34878793          	addi	a5,a5,840 # 39348 <nodes>
   115f8:	00f707b3          	add	a5,a4,a5
   115fc:	fef42423          	sw	a5,-24(s0)
   11600:	fe442703          	lw	a4,-28(s0)
   11604:	07b00793          	li	a5,123
   11608:	02e7da63          	bge	a5,a4,1163c <_Z12prefix_query8in6_addrPS_PjS1_+0x1cc>
   1160c:	fe842783          	lw	a5,-24(s0)
   11610:	0047a783          	lw	a5,4(a5)
   11614:	0027f793          	andi	a5,a5,2
   11618:	02078263          	beqz	a5,1163c <_Z12prefix_query8in6_addrPS_PjS1_+0x1cc>
   1161c:	fe842783          	lw	a5,-24(s0)
   11620:	00c7a783          	lw	a5,12(a5)
   11624:	00059737          	lui	a4,0x59
   11628:	34870713          	addi	a4,a4,840 # 59348 <leafs>
   1162c:	00279793          	slli	a5,a5,0x2
   11630:	00f707b3          	add	a5,a4,a5
   11634:	0007a783          	lw	a5,0(a5)
   11638:	fef42623          	sw	a5,-20(s0)
   1163c:	fe442783          	lw	a5,-28(s0)
   11640:	00478793          	addi	a5,a5,4
   11644:	fef42223          	sw	a5,-28(s0)
   11648:	e71ff06f          	j	114b8 <_Z12prefix_query8in6_addrPS_PjS1_+0x48>
   1164c:	00000013          	nop
   11650:	fec42703          	lw	a4,-20(s0)
   11654:	fff00793          	li	a5,-1
   11658:	00f71663          	bne	a4,a5,11664 <_Z12prefix_query8in6_addrPS_PjS1_+0x1f4>
   1165c:	00000793          	li	a5,0
   11660:	1100006f          	j	11770 <_Z12prefix_query8in6_addrPS_PjS1_+0x300>
   11664:	0005a7b7          	lui	a5,0x5a
   11668:	34878693          	addi	a3,a5,840 # 5a348 <next_hops>
   1166c:	fec42703          	lw	a4,-20(s0)
   11670:	00070793          	mv	a5,a4
   11674:	00179793          	slli	a5,a5,0x1
   11678:	00e787b3          	add	a5,a5,a4
   1167c:	00379793          	slli	a5,a5,0x3
   11680:	00f687b3          	add	a5,a3,a5
   11684:	0007a703          	lw	a4,0(a5)
   11688:	fcc42783          	lw	a5,-52(s0)
   1168c:	00e7a023          	sw	a4,0(a5)
   11690:	0005a7b7          	lui	a5,0x5a
   11694:	34878693          	addi	a3,a5,840 # 5a348 <next_hops>
   11698:	fec42703          	lw	a4,-20(s0)
   1169c:	00070793          	mv	a5,a4
   116a0:	00179793          	slli	a5,a5,0x1
   116a4:	00e787b3          	add	a5,a5,a4
   116a8:	00379793          	slli	a5,a5,0x3
   116ac:	00f687b3          	add	a5,a3,a5
   116b0:	0047a703          	lw	a4,4(a5)
   116b4:	fcc42783          	lw	a5,-52(s0)
   116b8:	00e7a223          	sw	a4,4(a5)
   116bc:	0005a7b7          	lui	a5,0x5a
   116c0:	34878693          	addi	a3,a5,840 # 5a348 <next_hops>
   116c4:	fec42703          	lw	a4,-20(s0)
   116c8:	00070793          	mv	a5,a4
   116cc:	00179793          	slli	a5,a5,0x1
   116d0:	00e787b3          	add	a5,a5,a4
   116d4:	00379793          	slli	a5,a5,0x3
   116d8:	00f687b3          	add	a5,a3,a5
   116dc:	0087a703          	lw	a4,8(a5)
   116e0:	fcc42783          	lw	a5,-52(s0)
   116e4:	00e7a423          	sw	a4,8(a5)
   116e8:	0005a7b7          	lui	a5,0x5a
   116ec:	34878693          	addi	a3,a5,840 # 5a348 <next_hops>
   116f0:	fec42703          	lw	a4,-20(s0)
   116f4:	00070793          	mv	a5,a4
   116f8:	00179793          	slli	a5,a5,0x1
   116fc:	00e787b3          	add	a5,a5,a4
   11700:	00379793          	slli	a5,a5,0x3
   11704:	00f687b3          	add	a5,a3,a5
   11708:	00c7a703          	lw	a4,12(a5)
   1170c:	fcc42783          	lw	a5,-52(s0)
   11710:	00e7a623          	sw	a4,12(a5)
   11714:	0005a7b7          	lui	a5,0x5a
   11718:	34878693          	addi	a3,a5,840 # 5a348 <next_hops>
   1171c:	fec42703          	lw	a4,-20(s0)
   11720:	00070793          	mv	a5,a4
   11724:	00179793          	slli	a5,a5,0x1
   11728:	00e787b3          	add	a5,a5,a4
   1172c:	00379793          	slli	a5,a5,0x3
   11730:	00f687b3          	add	a5,a3,a5
   11734:	0107a703          	lw	a4,16(a5)
   11738:	fc842783          	lw	a5,-56(s0)
   1173c:	00e7a023          	sw	a4,0(a5)
   11740:	0005a7b7          	lui	a5,0x5a
   11744:	34878693          	addi	a3,a5,840 # 5a348 <next_hops>
   11748:	fec42703          	lw	a4,-20(s0)
   1174c:	00070793          	mv	a5,a4
   11750:	00179793          	slli	a5,a5,0x1
   11754:	00e787b3          	add	a5,a5,a4
   11758:	00379793          	slli	a5,a5,0x3
   1175c:	00f687b3          	add	a5,a3,a5
   11760:	0147a703          	lw	a4,20(a5)
   11764:	fc442783          	lw	a5,-60(s0)
   11768:	00e7a023          	sw	a4,0(a5)
   1176c:	00100793          	li	a5,1
   11770:	00078513          	mv	a0,a5
   11774:	04c12083          	lw	ra,76(sp)
   11778:	04812403          	lw	s0,72(sp)
   1177c:	04412483          	lw	s1,68(sp)
   11780:	05010113          	addi	sp,sp,80
   11784:	00008067          	ret

00011788 <_Z11node_mallocii>:
   11788:	fd010113          	addi	sp,sp,-48
   1178c:	02112623          	sw	ra,44(sp)
   11790:	02812423          	sw	s0,40(sp)
   11794:	03010413          	addi	s0,sp,48
   11798:	fca42e23          	sw	a0,-36(s0)
   1179c:	fcb42c23          	sw	a1,-40(s0)
   117a0:	000367b7          	lui	a5,0x36
   117a4:	41878713          	addi	a4,a5,1048 # 36418 <node_tops>
   117a8:	fdc42783          	lw	a5,-36(s0)
   117ac:	00279793          	slli	a5,a5,0x2
   117b0:	00f707b3          	add	a5,a4,a5
   117b4:	0007a703          	lw	a4,0(a5)
   117b8:	fd842783          	lw	a5,-40(s0)
   117bc:	00f70733          	add	a4,a4,a5
   117c0:	000367b7          	lui	a5,0x36
   117c4:	41878693          	addi	a3,a5,1048 # 36418 <node_tops>
   117c8:	fdc42783          	lw	a5,-36(s0)
   117cc:	00279793          	slli	a5,a5,0x2
   117d0:	00f687b3          	add	a5,a3,a5
   117d4:	00e7a023          	sw	a4,0(a5)
   117d8:	000367b7          	lui	a5,0x36
   117dc:	41878713          	addi	a4,a5,1048 # 36418 <node_tops>
   117e0:	fdc42783          	lw	a5,-36(s0)
   117e4:	00279793          	slli	a5,a5,0x2
   117e8:	00f707b3          	add	a5,a4,a5
   117ec:	0007a703          	lw	a4,0(a5)
   117f0:	40000793          	li	a5,1024
   117f4:	02e7d263          	bge	a5,a4,11818 <_Z11node_mallocii+0x90>
   117f8:	000347b7          	lui	a5,0x34
   117fc:	26878693          	addi	a3,a5,616 # 34268 <_ZL12NODE_ADDRESS+0x20>
   11800:	000347b7          	lui	a5,0x34
   11804:	29478613          	addi	a2,a5,660 # 34294 <_ZL12NODE_ADDRESS+0x4c>
   11808:	00c00593          	li	a1,12
   1180c:	000347b7          	lui	a5,0x34
   11810:	2b078513          	addi	a0,a5,688 # 342b0 <_ZL12NODE_ADDRESS+0x68>
   11814:	07d000ef          	jal	ra,12090 <__assert_func>
   11818:	000367b7          	lui	a5,0x36
   1181c:	41878713          	addi	a4,a5,1048 # 36418 <node_tops>
   11820:	fdc42783          	lw	a5,-36(s0)
   11824:	00279793          	slli	a5,a5,0x2
   11828:	00f707b3          	add	a5,a4,a5
   1182c:	0007a703          	lw	a4,0(a5)
   11830:	fd842783          	lw	a5,-40(s0)
   11834:	40f707b3          	sub	a5,a4,a5
   11838:	fef42623          	sw	a5,-20(s0)
   1183c:	000367b7          	lui	a5,0x36
   11840:	41878713          	addi	a4,a5,1048 # 36418 <node_tops>
   11844:	fdc42783          	lw	a5,-36(s0)
   11848:	00279793          	slli	a5,a5,0x2
   1184c:	00f707b3          	add	a5,a4,a5
   11850:	0007a783          	lw	a5,0(a5)
   11854:	fec42703          	lw	a4,-20(s0)
   11858:	02f75c63          	bge	a4,a5,11890 <_Z11node_mallocii+0x108>
   1185c:	000367b7          	lui	a5,0x36
   11860:	43878713          	addi	a4,a5,1080 # 36438 <node_used>
   11864:	fdc42783          	lw	a5,-36(s0)
   11868:	00a79793          	slli	a5,a5,0xa
   1186c:	00f70733          	add	a4,a4,a5
   11870:	fec42783          	lw	a5,-20(s0)
   11874:	00f707b3          	add	a5,a4,a5
   11878:	00100713          	li	a4,1
   1187c:	00e78023          	sb	a4,0(a5)
   11880:	fec42783          	lw	a5,-20(s0)
   11884:	00178793          	addi	a5,a5,1
   11888:	fef42623          	sw	a5,-20(s0)
   1188c:	fb1ff06f          	j	1183c <_Z11node_mallocii+0xb4>
   11890:	000367b7          	lui	a5,0x36
   11894:	41878713          	addi	a4,a5,1048 # 36418 <node_tops>
   11898:	fdc42783          	lw	a5,-36(s0)
   1189c:	00279793          	slli	a5,a5,0x2
   118a0:	00f707b3          	add	a5,a4,a5
   118a4:	0007a703          	lw	a4,0(a5)
   118a8:	fd842783          	lw	a5,-40(s0)
   118ac:	40f707b3          	sub	a5,a4,a5
   118b0:	00078513          	mv	a0,a5
   118b4:	02c12083          	lw	ra,44(sp)
   118b8:	02812403          	lw	s0,40(sp)
   118bc:	03010113          	addi	sp,sp,48
   118c0:	00008067          	ret

000118c4 <_Z9node_freeiii>:
   118c4:	fd010113          	addi	sp,sp,-48
   118c8:	02812623          	sw	s0,44(sp)
   118cc:	03010413          	addi	s0,sp,48
   118d0:	fca42e23          	sw	a0,-36(s0)
   118d4:	fcb42c23          	sw	a1,-40(s0)
   118d8:	fcc42a23          	sw	a2,-44(s0)
   118dc:	fd842783          	lw	a5,-40(s0)
   118e0:	fef42623          	sw	a5,-20(s0)
   118e4:	fd842703          	lw	a4,-40(s0)
   118e8:	fd442783          	lw	a5,-44(s0)
   118ec:	00f707b3          	add	a5,a4,a5
   118f0:	fec42703          	lw	a4,-20(s0)
   118f4:	02f75a63          	bge	a4,a5,11928 <_Z9node_freeiii+0x64>
   118f8:	000367b7          	lui	a5,0x36
   118fc:	43878713          	addi	a4,a5,1080 # 36438 <node_used>
   11900:	fdc42783          	lw	a5,-36(s0)
   11904:	00a79793          	slli	a5,a5,0xa
   11908:	00f70733          	add	a4,a4,a5
   1190c:	fec42783          	lw	a5,-20(s0)
   11910:	00f707b3          	add	a5,a4,a5
   11914:	00078023          	sb	zero,0(a5)
   11918:	fec42783          	lw	a5,-20(s0)
   1191c:	00178793          	addi	a5,a5,1
   11920:	fef42623          	sw	a5,-20(s0)
   11924:	fc1ff06f          	j	118e4 <_Z9node_freeiii+0x20>
   11928:	00000013          	nop
   1192c:	02c12403          	lw	s0,44(sp)
   11930:	03010113          	addi	sp,sp,48
   11934:	00008067          	ret

00011938 <_Z12is_node_usedii>:
   11938:	fe010113          	addi	sp,sp,-32
   1193c:	00812e23          	sw	s0,28(sp)
   11940:	02010413          	addi	s0,sp,32
   11944:	fea42623          	sw	a0,-20(s0)
   11948:	feb42423          	sw	a1,-24(s0)
   1194c:	000367b7          	lui	a5,0x36
   11950:	43878713          	addi	a4,a5,1080 # 36438 <node_used>
   11954:	fec42783          	lw	a5,-20(s0)
   11958:	00a79793          	slli	a5,a5,0xa
   1195c:	00f70733          	add	a4,a4,a5
   11960:	fe842783          	lw	a5,-24(s0)
   11964:	00f707b3          	add	a5,a4,a5
   11968:	0007c783          	lbu	a5,0(a5)
   1196c:	00078513          	mv	a0,a5
   11970:	01c12403          	lw	s0,28(sp)
   11974:	02010113          	addi	sp,sp,32
   11978:	00008067          	ret

0001197c <_Z11leaf_malloci>:
   1197c:	fd010113          	addi	sp,sp,-48
   11980:	02112623          	sw	ra,44(sp)
   11984:	02812423          	sw	s0,40(sp)
   11988:	03010413          	addi	s0,sp,48
   1198c:	fca42e23          	sw	a0,-36(s0)
   11990:	9101a703          	lw	a4,-1776(gp) # 38ef8 <leaf_top>
   11994:	fdc42783          	lw	a5,-36(s0)
   11998:	00f70733          	add	a4,a4,a5
   1199c:	90e1a823          	sw	a4,-1776(gp) # 38ef8 <leaf_top>
   119a0:	9101a703          	lw	a4,-1776(gp) # 38ef8 <leaf_top>
   119a4:	40000793          	li	a5,1024
   119a8:	02e7d263          	bge	a5,a4,119cc <_Z11leaf_malloci+0x50>
   119ac:	000347b7          	lui	a5,0x34
   119b0:	2c078693          	addi	a3,a5,704 # 342c0 <_ZL12NODE_ADDRESS+0x78>
   119b4:	000347b7          	lui	a5,0x34
   119b8:	2d878613          	addi	a2,a5,728 # 342d8 <_ZL12NODE_ADDRESS+0x90>
   119bc:	02100593          	li	a1,33
   119c0:	000347b7          	lui	a5,0x34
   119c4:	2b078513          	addi	a0,a5,688 # 342b0 <_ZL12NODE_ADDRESS+0x68>
   119c8:	6c8000ef          	jal	ra,12090 <__assert_func>
   119cc:	9101a703          	lw	a4,-1776(gp) # 38ef8 <leaf_top>
   119d0:	fdc42783          	lw	a5,-36(s0)
   119d4:	40f707b3          	sub	a5,a4,a5
   119d8:	fef42623          	sw	a5,-20(s0)
   119dc:	9101a783          	lw	a5,-1776(gp) # 38ef8 <leaf_top>
   119e0:	fec42703          	lw	a4,-20(s0)
   119e4:	02f75663          	bge	a4,a5,11a10 <_Z11leaf_malloci+0x94>
   119e8:	0005b7b7          	lui	a5,0x5b
   119ec:	b4878713          	addi	a4,a5,-1208 # 5ab48 <leaf_used>
   119f0:	fec42783          	lw	a5,-20(s0)
   119f4:	00f707b3          	add	a5,a4,a5
   119f8:	00100713          	li	a4,1
   119fc:	00e78023          	sb	a4,0(a5)
   11a00:	fec42783          	lw	a5,-20(s0)
   11a04:	00178793          	addi	a5,a5,1
   11a08:	fef42623          	sw	a5,-20(s0)
   11a0c:	fd1ff06f          	j	119dc <_Z11leaf_malloci+0x60>
   11a10:	9101a703          	lw	a4,-1776(gp) # 38ef8 <leaf_top>
   11a14:	fdc42783          	lw	a5,-36(s0)
   11a18:	40f707b3          	sub	a5,a4,a5
   11a1c:	00078513          	mv	a0,a5
   11a20:	02c12083          	lw	ra,44(sp)
   11a24:	02812403          	lw	s0,40(sp)
   11a28:	03010113          	addi	sp,sp,48
   11a2c:	00008067          	ret

00011a30 <_Z9leaf_freeii>:
   11a30:	fd010113          	addi	sp,sp,-48
   11a34:	02812623          	sw	s0,44(sp)
   11a38:	03010413          	addi	s0,sp,48
   11a3c:	fca42e23          	sw	a0,-36(s0)
   11a40:	fcb42c23          	sw	a1,-40(s0)
   11a44:	fdc42783          	lw	a5,-36(s0)
   11a48:	fef42623          	sw	a5,-20(s0)
   11a4c:	fdc42703          	lw	a4,-36(s0)
   11a50:	fd842783          	lw	a5,-40(s0)
   11a54:	00f707b3          	add	a5,a4,a5
   11a58:	fec42703          	lw	a4,-20(s0)
   11a5c:	02f75463          	bge	a4,a5,11a84 <_Z9leaf_freeii+0x54>
   11a60:	0005b7b7          	lui	a5,0x5b
   11a64:	b4878713          	addi	a4,a5,-1208 # 5ab48 <leaf_used>
   11a68:	fec42783          	lw	a5,-20(s0)
   11a6c:	00f707b3          	add	a5,a4,a5
   11a70:	00078023          	sb	zero,0(a5)
   11a74:	fec42783          	lw	a5,-20(s0)
   11a78:	00178793          	addi	a5,a5,1
   11a7c:	fef42623          	sw	a5,-20(s0)
   11a80:	fcdff06f          	j	11a4c <_Z9leaf_freeii+0x1c>
   11a84:	00000013          	nop
   11a88:	02c12403          	lw	s0,44(sp)
   11a8c:	03010113          	addi	sp,sp,48
   11a90:	00008067          	ret

00011a94 <_Z12is_leaf_usedi>:
   11a94:	fe010113          	addi	sp,sp,-32
   11a98:	00812e23          	sw	s0,28(sp)
   11a9c:	02010413          	addi	s0,sp,32
   11aa0:	fea42623          	sw	a0,-20(s0)
   11aa4:	0005b7b7          	lui	a5,0x5b
   11aa8:	b4878713          	addi	a4,a5,-1208 # 5ab48 <leaf_used>
   11aac:	fec42783          	lw	a5,-20(s0)
   11ab0:	00f707b3          	add	a5,a4,a5
   11ab4:	0007c783          	lbu	a5,0(a5)
   11ab8:	00078513          	mv	a0,a5
   11abc:	01c12403          	lw	s0,28(sp)
   11ac0:	02010113          	addi	sp,sp,32
   11ac4:	00008067          	ret

00011ac8 <_Z8print_ip8in6_addr>:
   11ac8:	fe010113          	addi	sp,sp,-32
   11acc:	00112e23          	sw	ra,28(sp)
   11ad0:	00812c23          	sw	s0,24(sp)
   11ad4:	00912a23          	sw	s1,20(sp)
   11ad8:	02010413          	addi	s0,sp,32
   11adc:	00050493          	mv	s1,a0
   11ae0:	fe042623          	sw	zero,-20(s0)
   11ae4:	fec42703          	lw	a4,-20(s0)
   11ae8:	00300793          	li	a5,3
   11aec:	02e7ca63          	blt	a5,a4,11b20 <_Z8print_ip8in6_addr+0x58>
   11af0:	fec42783          	lw	a5,-20(s0)
   11af4:	00279793          	slli	a5,a5,0x2
   11af8:	00f487b3          	add	a5,s1,a5
   11afc:	0007a783          	lw	a5,0(a5)
   11b00:	00078593          	mv	a1,a5
   11b04:	000347b7          	lui	a5,0x34
   11b08:	31078513          	addi	a0,a5,784 # 34310 <_ZL12NODE_ADDRESS+0x20>
   11b0c:	38d020ef          	jal	ra,14698 <printf>
   11b10:	fec42783          	lw	a5,-20(s0)
   11b14:	00178793          	addi	a5,a5,1
   11b18:	fef42623          	sw	a5,-20(s0)
   11b1c:	fc9ff06f          	j	11ae4 <_Z8print_ip8in6_addr+0x1c>
   11b20:	00000013          	nop
   11b24:	01c12083          	lw	ra,28(sp)
   11b28:	01812403          	lw	s0,24(sp)
   11b2c:	01412483          	lw	s1,20(sp)
   11b30:	02010113          	addi	sp,sp,32
   11b34:	00008067          	ret

00011b38 <_Z5printji>:
   11b38:	fd010113          	addi	sp,sp,-48
   11b3c:	02112623          	sw	ra,44(sp)
   11b40:	02812423          	sw	s0,40(sp)
   11b44:	03010413          	addi	s0,sp,48
   11b48:	fca42e23          	sw	a0,-36(s0)
   11b4c:	fcb42c23          	sw	a1,-40(s0)
   11b50:	fd842783          	lw	a5,-40(s0)
   11b54:	00079863          	bnez	a5,11b64 <_Z5printji+0x2c>
   11b58:	000347b7          	lui	a5,0x34
   11b5c:	31878513          	addi	a0,a5,792 # 34318 <_ZL12NODE_ADDRESS+0x28>
   11b60:	451020ef          	jal	ra,147b0 <puts>
   11b64:	fe042623          	sw	zero,-20(s0)
   11b68:	fd842783          	lw	a5,-40(s0)
   11b6c:	41f7d713          	srai	a4,a5,0x1f
   11b70:	00377713          	andi	a4,a4,3
   11b74:	00f707b3          	add	a5,a4,a5
   11b78:	4027d793          	srai	a5,a5,0x2
   11b7c:	00078713          	mv	a4,a5
   11b80:	fec42783          	lw	a5,-20(s0)
   11b84:	02e7d063          	bge	a5,a4,11ba4 <_Z5printji+0x6c>
   11b88:	000347b7          	lui	a5,0x34
   11b8c:	32878513          	addi	a0,a5,808 # 34328 <_ZL12NODE_ADDRESS+0x38>
   11b90:	309020ef          	jal	ra,14698 <printf>
   11b94:	fec42783          	lw	a5,-20(s0)
   11b98:	00178793          	addi	a5,a5,1
   11b9c:	fef42623          	sw	a5,-20(s0)
   11ba0:	fc9ff06f          	j	11b68 <_Z5printji+0x30>
   11ba4:	fd842783          	lw	a5,-40(s0)
   11ba8:	41f7d713          	srai	a4,a5,0x1f
   11bac:	00f77713          	andi	a4,a4,15
   11bb0:	00f707b3          	add	a5,a4,a5
   11bb4:	4047d793          	srai	a5,a5,0x4
   11bb8:	00078893          	mv	a7,a5
   11bbc:	fd842783          	lw	a5,-40(s0)
   11bc0:	41f7d713          	srai	a4,a5,0x1f
   11bc4:	00f77713          	andi	a4,a4,15
   11bc8:	00f707b3          	add	a5,a4,a5
   11bcc:	4047d793          	srai	a5,a5,0x4
   11bd0:	00078693          	mv	a3,a5
   11bd4:	000397b7          	lui	a5,0x39
   11bd8:	34878713          	addi	a4,a5,840 # 39348 <nodes>
   11bdc:	00a69693          	slli	a3,a3,0xa
   11be0:	fdc42783          	lw	a5,-36(s0)
   11be4:	00f687b3          	add	a5,a3,a5
   11be8:	00479793          	slli	a5,a5,0x4
   11bec:	00f707b3          	add	a5,a4,a5
   11bf0:	0007a603          	lw	a2,0(a5)
   11bf4:	fd842783          	lw	a5,-40(s0)
   11bf8:	41f7d713          	srai	a4,a5,0x1f
   11bfc:	00f77713          	andi	a4,a4,15
   11c00:	00f707b3          	add	a5,a4,a5
   11c04:	4047d793          	srai	a5,a5,0x4
   11c08:	00078693          	mv	a3,a5
   11c0c:	000397b7          	lui	a5,0x39
   11c10:	34878713          	addi	a4,a5,840 # 39348 <nodes>
   11c14:	00a69693          	slli	a3,a3,0xa
   11c18:	fdc42783          	lw	a5,-36(s0)
   11c1c:	00f687b3          	add	a5,a3,a5
   11c20:	00479793          	slli	a5,a5,0x4
   11c24:	00f707b3          	add	a5,a4,a5
   11c28:	0047a583          	lw	a1,4(a5)
   11c2c:	fd842783          	lw	a5,-40(s0)
   11c30:	41f7d713          	srai	a4,a5,0x1f
   11c34:	00f77713          	andi	a4,a4,15
   11c38:	00f707b3          	add	a5,a4,a5
   11c3c:	4047d793          	srai	a5,a5,0x4
   11c40:	00078693          	mv	a3,a5
   11c44:	000397b7          	lui	a5,0x39
   11c48:	34878713          	addi	a4,a5,840 # 39348 <nodes>
   11c4c:	00a69693          	slli	a3,a3,0xa
   11c50:	fdc42783          	lw	a5,-36(s0)
   11c54:	00f687b3          	add	a5,a3,a5
   11c58:	00479793          	slli	a5,a5,0x4
   11c5c:	00f707b3          	add	a5,a4,a5
   11c60:	0087a503          	lw	a0,8(a5)
   11c64:	fd842783          	lw	a5,-40(s0)
   11c68:	41f7d713          	srai	a4,a5,0x1f
   11c6c:	00f77713          	andi	a4,a4,15
   11c70:	00f707b3          	add	a5,a4,a5
   11c74:	4047d793          	srai	a5,a5,0x4
   11c78:	00078693          	mv	a3,a5
   11c7c:	000397b7          	lui	a5,0x39
   11c80:	34878713          	addi	a4,a5,840 # 39348 <nodes>
   11c84:	00a69693          	slli	a3,a3,0xa
   11c88:	fdc42783          	lw	a5,-36(s0)
   11c8c:	00f687b3          	add	a5,a3,a5
   11c90:	00479793          	slli	a5,a5,0x4
   11c94:	00f707b3          	add	a5,a4,a5
   11c98:	00c7a783          	lw	a5,12(a5)
   11c9c:	00078813          	mv	a6,a5
   11ca0:	00050793          	mv	a5,a0
   11ca4:	00058713          	mv	a4,a1
   11ca8:	00060693          	mv	a3,a2
   11cac:	fdc42603          	lw	a2,-36(s0)
   11cb0:	00088593          	mv	a1,a7
   11cb4:	00034537          	lui	a0,0x34
   11cb8:	32c50513          	addi	a0,a0,812 # 3432c <_ZL12NODE_ADDRESS+0x3c>
   11cbc:	1dd020ef          	jal	ra,14698 <printf>
   11cc0:	fe042423          	sw	zero,-24(s0)
   11cc4:	fd842783          	lw	a5,-40(s0)
   11cc8:	41f7d713          	srai	a4,a5,0x1f
   11ccc:	00f77713          	andi	a4,a4,15
   11cd0:	00f707b3          	add	a5,a4,a5
   11cd4:	4047d793          	srai	a5,a5,0x4
   11cd8:	00078693          	mv	a3,a5
   11cdc:	000397b7          	lui	a5,0x39
   11ce0:	34878713          	addi	a4,a5,840 # 39348 <nodes>
   11ce4:	00a69693          	slli	a3,a3,0xa
   11ce8:	fdc42783          	lw	a5,-36(s0)
   11cec:	00f687b3          	add	a5,a3,a5
   11cf0:	00479793          	slli	a5,a5,0x4
   11cf4:	00f707b3          	add	a5,a4,a5
   11cf8:	0007a703          	lw	a4,0(a5)
   11cfc:	fe842783          	lw	a5,-24(s0)
   11d00:	06e7f463          	bgeu	a5,a4,11d68 <_Z5printji+0x230>
   11d04:	fd842783          	lw	a5,-40(s0)
   11d08:	41f7d713          	srai	a4,a5,0x1f
   11d0c:	00f77713          	andi	a4,a4,15
   11d10:	00f707b3          	add	a5,a4,a5
   11d14:	4047d793          	srai	a5,a5,0x4
   11d18:	00078693          	mv	a3,a5
   11d1c:	000397b7          	lui	a5,0x39
   11d20:	34878713          	addi	a4,a5,840 # 39348 <nodes>
   11d24:	00a69693          	slli	a3,a3,0xa
   11d28:	fdc42783          	lw	a5,-36(s0)
   11d2c:	00f687b3          	add	a5,a3,a5
   11d30:	00479793          	slli	a5,a5,0x4
   11d34:	00f707b3          	add	a5,a4,a5
   11d38:	0087a703          	lw	a4,8(a5)
   11d3c:	fe842783          	lw	a5,-24(s0)
   11d40:	00f70733          	add	a4,a4,a5
   11d44:	fd842783          	lw	a5,-40(s0)
   11d48:	00478793          	addi	a5,a5,4
   11d4c:	00078593          	mv	a1,a5
   11d50:	00070513          	mv	a0,a4
   11d54:	de5ff0ef          	jal	ra,11b38 <_Z5printji>
   11d58:	fe842783          	lw	a5,-24(s0)
   11d5c:	00178793          	addi	a5,a5,1
   11d60:	fef42423          	sw	a5,-24(s0)
   11d64:	f61ff06f          	j	11cc4 <_Z5printji+0x18c>
   11d68:	fd842783          	lw	a5,-40(s0)
   11d6c:	00079863          	bnez	a5,11d7c <_Z5printji+0x244>
   11d70:	000347b7          	lui	a5,0x34
   11d74:	34078513          	addi	a0,a5,832 # 34340 <_ZL12NODE_ADDRESS+0x50>
   11d78:	239020ef          	jal	ra,147b0 <puts>
   11d7c:	00000013          	nop
   11d80:	02c12083          	lw	ra,44(sp)
   11d84:	02812403          	lw	s0,40(sp)
   11d88:	03010113          	addi	sp,sp,48
   11d8c:	00008067          	ret

00011d90 <_Z10export_memv>:
   11d90:	fd010113          	addi	sp,sp,-48
   11d94:	02112623          	sw	ra,44(sp)
   11d98:	02812423          	sw	s0,40(sp)
   11d9c:	03010413          	addi	s0,sp,48
   11da0:	9281a783          	lw	a5,-1752(gp) # 38f10 <node_root>
   11da4:	00000593          	li	a1,0
   11da8:	00078513          	mv	a0,a5
   11dac:	d8dff0ef          	jal	ra,11b38 <_Z5printji>
   11db0:	000347b7          	lui	a5,0x34
   11db4:	37078593          	addi	a1,a5,880 # 34370 <_ZL12NODE_ADDRESS+0x80>
   11db8:	000347b7          	lui	a5,0x34
   11dbc:	37478513          	addi	a0,a5,884 # 34374 <_ZL12NODE_ADDRESS+0x84>
   11dc0:	6e9000ef          	jal	ra,12ca8 <fopen>
   11dc4:	00050793          	mv	a5,a0
   11dc8:	fcf42c23          	sw	a5,-40(s0)
   11dcc:	fe042423          	sw	zero,-24(s0)
   11dd0:	fe842703          	lw	a4,-24(s0)
   11dd4:	00700793          	li	a5,7
   11dd8:	0ae7c263          	blt	a5,a4,11e7c <_Z10export_memv+0xec>
   11ddc:	000347b7          	lui	a5,0x34
   11de0:	2f078713          	addi	a4,a5,752 # 342f0 <_ZL12NODE_ADDRESS>
   11de4:	fe842783          	lw	a5,-24(s0)
   11de8:	00279793          	slli	a5,a5,0x2
   11dec:	00f707b3          	add	a5,a4,a5
   11df0:	0007a783          	lw	a5,0(a5)
   11df4:	fef42623          	sw	a5,-20(s0)
   11df8:	fe042223          	sw	zero,-28(s0)
   11dfc:	fe442703          	lw	a4,-28(s0)
   11e00:	3ff00793          	li	a5,1023
   11e04:	06e7c463          	blt	a5,a4,11e6c <_Z10export_memv+0xdc>
   11e08:	fe442583          	lw	a1,-28(s0)
   11e0c:	fe842503          	lw	a0,-24(s0)
   11e10:	b29ff0ef          	jal	ra,11938 <_Z12is_node_usedii>
   11e14:	00050793          	mv	a5,a0
   11e18:	02078c63          	beqz	a5,11e50 <_Z10export_memv+0xc0>
   11e1c:	fe842783          	lw	a5,-24(s0)
   11e20:	00a79713          	slli	a4,a5,0xa
   11e24:	fe442783          	lw	a5,-28(s0)
   11e28:	00f707b3          	add	a5,a4,a5
   11e2c:	00479713          	slli	a4,a5,0x4
   11e30:	000397b7          	lui	a5,0x39
   11e34:	34878793          	addi	a5,a5,840 # 39348 <nodes>
   11e38:	00f707b3          	add	a5,a4,a5
   11e3c:	00400693          	li	a3,4
   11e40:	00078613          	mv	a2,a5
   11e44:	fec42583          	lw	a1,-20(s0)
   11e48:	fd842503          	lw	a0,-40(s0)
   11e4c:	19c000ef          	jal	ra,11fe8 <_Z11_write_u32sP7__sFILEjPji>
   11e50:	fec42783          	lw	a5,-20(s0)
   11e54:	01078793          	addi	a5,a5,16
   11e58:	fef42623          	sw	a5,-20(s0)
   11e5c:	fe442783          	lw	a5,-28(s0)
   11e60:	00178793          	addi	a5,a5,1
   11e64:	fef42223          	sw	a5,-28(s0)
   11e68:	f95ff06f          	j	11dfc <_Z10export_memv+0x6c>
   11e6c:	fe842783          	lw	a5,-24(s0)
   11e70:	00178793          	addi	a5,a5,1
   11e74:	fef42423          	sw	a5,-24(s0)
   11e78:	f59ff06f          	j	11dd0 <_Z10export_memv+0x40>
   11e7c:	500007b7          	lui	a5,0x50000
   11e80:	fef42623          	sw	a5,-20(s0)
   11e84:	fe042023          	sw	zero,-32(s0)
   11e88:	fe042703          	lw	a4,-32(s0)
   11e8c:	3ff00793          	li	a5,1023
   11e90:	04e7cc63          	blt	a5,a4,11ee8 <_Z10export_memv+0x158>
   11e94:	fe042503          	lw	a0,-32(s0)
   11e98:	bfdff0ef          	jal	ra,11a94 <_Z12is_leaf_usedi>
   11e9c:	00050793          	mv	a5,a0
   11ea0:	02078663          	beqz	a5,11ecc <_Z10export_memv+0x13c>
   11ea4:	fe042783          	lw	a5,-32(s0)
   11ea8:	00279713          	slli	a4,a5,0x2
   11eac:	000597b7          	lui	a5,0x59
   11eb0:	34878793          	addi	a5,a5,840 # 59348 <leafs>
   11eb4:	00f707b3          	add	a5,a4,a5
   11eb8:	00100693          	li	a3,1
   11ebc:	00078613          	mv	a2,a5
   11ec0:	fec42583          	lw	a1,-20(s0)
   11ec4:	fd842503          	lw	a0,-40(s0)
   11ec8:	120000ef          	jal	ra,11fe8 <_Z11_write_u32sP7__sFILEjPji>
   11ecc:	fec42783          	lw	a5,-20(s0)
   11ed0:	00478793          	addi	a5,a5,4
   11ed4:	fef42623          	sw	a5,-20(s0)
   11ed8:	fe042783          	lw	a5,-32(s0)
   11edc:	00178793          	addi	a5,a5,1
   11ee0:	fef42023          	sw	a5,-32(s0)
   11ee4:	fa5ff06f          	j	11e88 <_Z10export_memv+0xf8>
   11ee8:	510007b7          	lui	a5,0x51000
   11eec:	fef42623          	sw	a5,-20(s0)
   11ef0:	fc042e23          	sw	zero,-36(s0)
   11ef4:	fdc42703          	lw	a4,-36(s0)
   11ef8:	9241a783          	lw	a5,-1756(gp) # 38f0c <entry_count>
   11efc:	0cf77863          	bgeu	a4,a5,11fcc <_Z10export_memv+0x23c>
   11f00:	fdc42703          	lw	a4,-36(s0)
   11f04:	00070793          	mv	a5,a4
   11f08:	00179793          	slli	a5,a5,0x1
   11f0c:	00e787b3          	add	a5,a5,a4
   11f10:	00379793          	slli	a5,a5,0x3
   11f14:	0005a737          	lui	a4,0x5a
   11f18:	34870713          	addi	a4,a4,840 # 5a348 <next_hops>
   11f1c:	00e787b3          	add	a5,a5,a4
   11f20:	00400693          	li	a3,4
   11f24:	00078613          	mv	a2,a5
   11f28:	fec42583          	lw	a1,-20(s0)
   11f2c:	fd842503          	lw	a0,-40(s0)
   11f30:	0b8000ef          	jal	ra,11fe8 <_Z11_write_u32sP7__sFILEjPji>
   11f34:	fec42783          	lw	a5,-20(s0)
   11f38:	01078593          	addi	a1,a5,16 # 51000010 <__BSS_END__+0x50fa50a0>
   11f3c:	fdc42703          	lw	a4,-36(s0)
   11f40:	00070793          	mv	a5,a4
   11f44:	00179793          	slli	a5,a5,0x1
   11f48:	00e787b3          	add	a5,a5,a4
   11f4c:	00379793          	slli	a5,a5,0x3
   11f50:	01078713          	addi	a4,a5,16
   11f54:	0005a7b7          	lui	a5,0x5a
   11f58:	34878793          	addi	a5,a5,840 # 5a348 <next_hops>
   11f5c:	00f707b3          	add	a5,a4,a5
   11f60:	00100693          	li	a3,1
   11f64:	00078613          	mv	a2,a5
   11f68:	fd842503          	lw	a0,-40(s0)
   11f6c:	07c000ef          	jal	ra,11fe8 <_Z11_write_u32sP7__sFILEjPji>
   11f70:	fec42783          	lw	a5,-20(s0)
   11f74:	01478593          	addi	a1,a5,20
   11f78:	fdc42703          	lw	a4,-36(s0)
   11f7c:	00070793          	mv	a5,a4
   11f80:	00179793          	slli	a5,a5,0x1
   11f84:	00e787b3          	add	a5,a5,a4
   11f88:	00379793          	slli	a5,a5,0x3
   11f8c:	01078713          	addi	a4,a5,16
   11f90:	0005a7b7          	lui	a5,0x5a
   11f94:	34878793          	addi	a5,a5,840 # 5a348 <next_hops>
   11f98:	00f707b3          	add	a5,a4,a5
   11f9c:	00478793          	addi	a5,a5,4
   11fa0:	00100693          	li	a3,1
   11fa4:	00078613          	mv	a2,a5
   11fa8:	fd842503          	lw	a0,-40(s0)
   11fac:	03c000ef          	jal	ra,11fe8 <_Z11_write_u32sP7__sFILEjPji>
   11fb0:	fec42783          	lw	a5,-20(s0)
   11fb4:	02078793          	addi	a5,a5,32
   11fb8:	fef42623          	sw	a5,-20(s0)
   11fbc:	fdc42783          	lw	a5,-36(s0)
   11fc0:	00178793          	addi	a5,a5,1
   11fc4:	fcf42e23          	sw	a5,-36(s0)
   11fc8:	f2dff06f          	j	11ef4 <_Z10export_memv+0x164>
   11fcc:	fd842503          	lw	a0,-40(s0)
   11fd0:	288000ef          	jal	ra,12258 <fclose>
   11fd4:	00000013          	nop
   11fd8:	02c12083          	lw	ra,44(sp)
   11fdc:	02812403          	lw	s0,40(sp)
   11fe0:	03010113          	addi	sp,sp,48
   11fe4:	00008067          	ret

00011fe8 <_Z11_write_u32sP7__sFILEjPji>:
   11fe8:	fd010113          	addi	sp,sp,-48
   11fec:	02112623          	sw	ra,44(sp)
   11ff0:	02812423          	sw	s0,40(sp)
   11ff4:	03010413          	addi	s0,sp,48
   11ff8:	fca42e23          	sw	a0,-36(s0)
   11ffc:	fcb42c23          	sw	a1,-40(s0)
   12000:	fcc42a23          	sw	a2,-44(s0)
   12004:	fcd42823          	sw	a3,-48(s0)
   12008:	fe042623          	sw	zero,-20(s0)
   1200c:	fec42703          	lw	a4,-20(s0)
   12010:	fd042783          	lw	a5,-48(s0)
   12014:	06f75463          	bge	a4,a5,1207c <_Z11_write_u32sP7__sFILEjPji+0x94>
   12018:	fec42783          	lw	a5,-20(s0)
   1201c:	00279793          	slli	a5,a5,0x2
   12020:	fd442703          	lw	a4,-44(s0)
   12024:	00f707b3          	add	a5,a4,a5
   12028:	0007a783          	lw	a5,0(a5)
   1202c:	04078063          	beqz	a5,1206c <_Z11_write_u32sP7__sFILEjPji+0x84>
   12030:	fec42783          	lw	a5,-20(s0)
   12034:	00279793          	slli	a5,a5,0x2
   12038:	00078713          	mv	a4,a5
   1203c:	fd842783          	lw	a5,-40(s0)
   12040:	00f70633          	add	a2,a4,a5
   12044:	fec42783          	lw	a5,-20(s0)
   12048:	00279793          	slli	a5,a5,0x2
   1204c:	fd442703          	lw	a4,-44(s0)
   12050:	00f707b3          	add	a5,a4,a5
   12054:	0007a783          	lw	a5,0(a5)
   12058:	00078693          	mv	a3,a5
   1205c:	000347b7          	lui	a5,0x34
   12060:	36478593          	addi	a1,a5,868 # 34364 <_ZL12NODE_ADDRESS+0x74>
   12064:	fdc42503          	lw	a0,-36(s0)
   12068:	489000ef          	jal	ra,12cf0 <fprintf>
   1206c:	fec42783          	lw	a5,-20(s0)
   12070:	00178793          	addi	a5,a5,1
   12074:	fef42623          	sw	a5,-20(s0)
   12078:	f95ff06f          	j	1200c <_Z11_write_u32sP7__sFILEjPji+0x24>
   1207c:	00000013          	nop
   12080:	02c12083          	lw	ra,44(sp)
   12084:	02812403          	lw	s0,40(sp)
   12088:	03010113          	addi	sp,sp,48
   1208c:	00008067          	ret

00012090 <__assert_func>:
   12090:	ff010113          	addi	sp,sp,-16
   12094:	00068793          	mv	a5,a3
   12098:	9141a703          	lw	a4,-1772(gp) # 38efc <_impure_ptr>
   1209c:	00060813          	mv	a6,a2
   120a0:	00112623          	sw	ra,12(sp)
   120a4:	00c72883          	lw	a7,12(a4)
   120a8:	00078613          	mv	a2,a5
   120ac:	00050693          	mv	a3,a0
   120b0:	00058713          	mv	a4,a1
   120b4:	00022797          	auipc	a5,0x22
   120b8:	2c878793          	addi	a5,a5,712 # 3437c <_ZL12NODE_ADDRESS+0x8c>
   120bc:	00080c63          	beqz	a6,120d4 <__assert_func+0x44>
   120c0:	00022597          	auipc	a1,0x22
   120c4:	2cc58593          	addi	a1,a1,716 # 3438c <_ZL12NODE_ADDRESS+0x9c>
   120c8:	00088513          	mv	a0,a7
   120cc:	26d000ef          	jal	ra,12b38 <fiprintf>
   120d0:	391090ef          	jal	ra,1bc60 <abort>
   120d4:	00022797          	auipc	a5,0x22
   120d8:	2b478793          	addi	a5,a5,692 # 34388 <_ZL12NODE_ADDRESS+0x98>
   120dc:	00078813          	mv	a6,a5
   120e0:	fe1ff06f          	j	120c0 <__assert_func+0x30>

000120e4 <__assert>:
   120e4:	ff010113          	addi	sp,sp,-16
   120e8:	00060693          	mv	a3,a2
   120ec:	00000613          	li	a2,0
   120f0:	00112623          	sw	ra,12(sp)
   120f4:	f9dff0ef          	jal	ra,12090 <__assert_func>

000120f8 <exit>:
   120f8:	ff010113          	addi	sp,sp,-16
   120fc:	00000593          	li	a1,0
   12100:	00812423          	sw	s0,8(sp)
   12104:	00112623          	sw	ra,12(sp)
   12108:	00050413          	mv	s0,a0
   1210c:	36d090ef          	jal	ra,1bc78 <__call_exitprocs>
   12110:	9081a503          	lw	a0,-1784(gp) # 38ef0 <_global_impure_ptr>
   12114:	03c52783          	lw	a5,60(a0)
   12118:	00078463          	beqz	a5,12120 <exit+0x28>
   1211c:	000780e7          	jalr	a5
   12120:	00040513          	mv	a0,s0
   12124:	3641b0ef          	jal	ra,2d488 <_exit>

00012128 <_fclose_r.part.0>:
   12128:	ff010113          	addi	sp,sp,-16
   1212c:	00812423          	sw	s0,8(sp)
   12130:	00912223          	sw	s1,4(sp)
   12134:	01212023          	sw	s2,0(sp)
   12138:	00058413          	mv	s0,a1
   1213c:	00112623          	sw	ra,12(sp)
   12140:	00050493          	mv	s1,a0
   12144:	188000ef          	jal	ra,122cc <__sflush_r>
   12148:	02c42783          	lw	a5,44(s0)
   1214c:	00050913          	mv	s2,a0
   12150:	00078a63          	beqz	a5,12164 <_fclose_r.part.0+0x3c>
   12154:	01c42583          	lw	a1,28(s0)
   12158:	00048513          	mv	a0,s1
   1215c:	000780e7          	jalr	a5
   12160:	06054463          	bltz	a0,121c8 <_fclose_r.part.0+0xa0>
   12164:	00c45783          	lhu	a5,12(s0)
   12168:	0807f793          	andi	a5,a5,128
   1216c:	06079663          	bnez	a5,121d8 <_fclose_r.part.0+0xb0>
   12170:	03042583          	lw	a1,48(s0)
   12174:	00058c63          	beqz	a1,1218c <_fclose_r.part.0+0x64>
   12178:	04040793          	addi	a5,s0,64
   1217c:	00f58663          	beq	a1,a5,12188 <_fclose_r.part.0+0x60>
   12180:	00048513          	mv	a0,s1
   12184:	4f1000ef          	jal	ra,12e74 <_free_r>
   12188:	02042823          	sw	zero,48(s0)
   1218c:	04442583          	lw	a1,68(s0)
   12190:	00058863          	beqz	a1,121a0 <_fclose_r.part.0+0x78>
   12194:	00048513          	mv	a0,s1
   12198:	4dd000ef          	jal	ra,12e74 <_free_r>
   1219c:	04042223          	sw	zero,68(s0)
   121a0:	131000ef          	jal	ra,12ad0 <__sfp_lock_acquire>
   121a4:	00041623          	sh	zero,12(s0)
   121a8:	12d000ef          	jal	ra,12ad4 <__sfp_lock_release>
   121ac:	00c12083          	lw	ra,12(sp)
   121b0:	00812403          	lw	s0,8(sp)
   121b4:	00412483          	lw	s1,4(sp)
   121b8:	00090513          	mv	a0,s2
   121bc:	00012903          	lw	s2,0(sp)
   121c0:	01010113          	addi	sp,sp,16
   121c4:	00008067          	ret
   121c8:	00c45783          	lhu	a5,12(s0)
   121cc:	fff00913          	li	s2,-1
   121d0:	0807f793          	andi	a5,a5,128
   121d4:	f8078ee3          	beqz	a5,12170 <_fclose_r.part.0+0x48>
   121d8:	01042583          	lw	a1,16(s0)
   121dc:	00048513          	mv	a0,s1
   121e0:	495000ef          	jal	ra,12e74 <_free_r>
   121e4:	f8dff06f          	j	12170 <_fclose_r.part.0+0x48>

000121e8 <_fclose_r>:
   121e8:	06058463          	beqz	a1,12250 <_fclose_r+0x68>
   121ec:	fe010113          	addi	sp,sp,-32
   121f0:	00812c23          	sw	s0,24(sp)
   121f4:	00112e23          	sw	ra,28(sp)
   121f8:	00050413          	mv	s0,a0
   121fc:	00050663          	beqz	a0,12208 <_fclose_r+0x20>
   12200:	03852783          	lw	a5,56(a0)
   12204:	02078a63          	beqz	a5,12238 <_fclose_r+0x50>
   12208:	00c59783          	lh	a5,12(a1)
   1220c:	00079c63          	bnez	a5,12224 <_fclose_r+0x3c>
   12210:	01c12083          	lw	ra,28(sp)
   12214:	01812403          	lw	s0,24(sp)
   12218:	00000513          	li	a0,0
   1221c:	02010113          	addi	sp,sp,32
   12220:	00008067          	ret
   12224:	00040513          	mv	a0,s0
   12228:	01812403          	lw	s0,24(sp)
   1222c:	01c12083          	lw	ra,28(sp)
   12230:	02010113          	addi	sp,sp,32
   12234:	ef5ff06f          	j	12128 <_fclose_r.part.0>
   12238:	00b12623          	sw	a1,12(sp)
   1223c:	085000ef          	jal	ra,12ac0 <__sinit>
   12240:	00c12583          	lw	a1,12(sp)
   12244:	00c59783          	lh	a5,12(a1)
   12248:	fc0784e3          	beqz	a5,12210 <_fclose_r+0x28>
   1224c:	fd9ff06f          	j	12224 <_fclose_r+0x3c>
   12250:	00000513          	li	a0,0
   12254:	00008067          	ret

00012258 <fclose>:
   12258:	06050663          	beqz	a0,122c4 <fclose+0x6c>
   1225c:	fe010113          	addi	sp,sp,-32
   12260:	00812c23          	sw	s0,24(sp)
   12264:	00112e23          	sw	ra,28(sp)
   12268:	00050413          	mv	s0,a0
   1226c:	9141a503          	lw	a0,-1772(gp) # 38efc <_impure_ptr>
   12270:	00050663          	beqz	a0,1227c <fclose+0x24>
   12274:	03852783          	lw	a5,56(a0)
   12278:	02078a63          	beqz	a5,122ac <fclose+0x54>
   1227c:	00c41783          	lh	a5,12(s0)
   12280:	00079c63          	bnez	a5,12298 <fclose+0x40>
   12284:	01c12083          	lw	ra,28(sp)
   12288:	01812403          	lw	s0,24(sp)
   1228c:	00000513          	li	a0,0
   12290:	02010113          	addi	sp,sp,32
   12294:	00008067          	ret
   12298:	00040593          	mv	a1,s0
   1229c:	01812403          	lw	s0,24(sp)
   122a0:	01c12083          	lw	ra,28(sp)
   122a4:	02010113          	addi	sp,sp,32
   122a8:	e81ff06f          	j	12128 <_fclose_r.part.0>
   122ac:	00a12623          	sw	a0,12(sp)
   122b0:	011000ef          	jal	ra,12ac0 <__sinit>
   122b4:	00c41783          	lh	a5,12(s0)
   122b8:	00c12503          	lw	a0,12(sp)
   122bc:	fc0784e3          	beqz	a5,12284 <fclose+0x2c>
   122c0:	fd9ff06f          	j	12298 <fclose+0x40>
   122c4:	00000513          	li	a0,0
   122c8:	00008067          	ret

000122cc <__sflush_r>:
   122cc:	00c59783          	lh	a5,12(a1)
   122d0:	fe010113          	addi	sp,sp,-32
   122d4:	00812c23          	sw	s0,24(sp)
   122d8:	01312623          	sw	s3,12(sp)
   122dc:	00112e23          	sw	ra,28(sp)
   122e0:	00912a23          	sw	s1,20(sp)
   122e4:	01212823          	sw	s2,16(sp)
   122e8:	0087f693          	andi	a3,a5,8
   122ec:	00058413          	mv	s0,a1
   122f0:	00050993          	mv	s3,a0
   122f4:	10069c63          	bnez	a3,1240c <__sflush_r+0x140>
   122f8:	00001737          	lui	a4,0x1
   122fc:	80070713          	addi	a4,a4,-2048 # 800 <register_fini-0xf874>
   12300:	0045a683          	lw	a3,4(a1)
   12304:	00e7e7b3          	or	a5,a5,a4
   12308:	00f59623          	sh	a5,12(a1)
   1230c:	18d05663          	blez	a3,12498 <__sflush_r+0x1cc>
   12310:	02842703          	lw	a4,40(s0)
   12314:	0c070c63          	beqz	a4,123ec <__sflush_r+0x120>
   12318:	01079793          	slli	a5,a5,0x10
   1231c:	0107d793          	srli	a5,a5,0x10
   12320:	000016b7          	lui	a3,0x1
   12324:	0009a483          	lw	s1,0(s3)
   12328:	00d7f6b3          	and	a3,a5,a3
   1232c:	0009a023          	sw	zero,0(s3)
   12330:	01c42583          	lw	a1,28(s0)
   12334:	16069863          	bnez	a3,124a4 <__sflush_r+0x1d8>
   12338:	00100693          	li	a3,1
   1233c:	00000613          	li	a2,0
   12340:	00098513          	mv	a0,s3
   12344:	000700e7          	jalr	a4
   12348:	fff00793          	li	a5,-1
   1234c:	18f50e63          	beq	a0,a5,124e8 <__sflush_r+0x21c>
   12350:	00c45783          	lhu	a5,12(s0)
   12354:	02842703          	lw	a4,40(s0)
   12358:	01c42583          	lw	a1,28(s0)
   1235c:	0047f793          	andi	a5,a5,4
   12360:	00078e63          	beqz	a5,1237c <__sflush_r+0xb0>
   12364:	00442683          	lw	a3,4(s0)
   12368:	03042783          	lw	a5,48(s0)
   1236c:	40d50533          	sub	a0,a0,a3
   12370:	00078663          	beqz	a5,1237c <__sflush_r+0xb0>
   12374:	03c42783          	lw	a5,60(s0)
   12378:	40f50533          	sub	a0,a0,a5
   1237c:	00050613          	mv	a2,a0
   12380:	00000693          	li	a3,0
   12384:	00098513          	mv	a0,s3
   12388:	000700e7          	jalr	a4
   1238c:	fff00793          	li	a5,-1
   12390:	10f51e63          	bne	a0,a5,124ac <__sflush_r+0x1e0>
   12394:	0009a703          	lw	a4,0(s3)
   12398:	00c41783          	lh	a5,12(s0)
   1239c:	16070a63          	beqz	a4,12510 <__sflush_r+0x244>
   123a0:	01d00693          	li	a3,29
   123a4:	00d70663          	beq	a4,a3,123b0 <__sflush_r+0xe4>
   123a8:	01600693          	li	a3,22
   123ac:	0cd71463          	bne	a4,a3,12474 <__sflush_r+0x1a8>
   123b0:	01042683          	lw	a3,16(s0)
   123b4:	fffff737          	lui	a4,0xfffff
   123b8:	7ff70713          	addi	a4,a4,2047 # fffff7ff <__BSS_END__+0xfffa488f>
   123bc:	00e7f7b3          	and	a5,a5,a4
   123c0:	00f41623          	sh	a5,12(s0)
   123c4:	00042223          	sw	zero,4(s0)
   123c8:	00d42023          	sw	a3,0(s0)
   123cc:	03042583          	lw	a1,48(s0)
   123d0:	0099a023          	sw	s1,0(s3)
   123d4:	00058c63          	beqz	a1,123ec <__sflush_r+0x120>
   123d8:	04040793          	addi	a5,s0,64
   123dc:	00f58663          	beq	a1,a5,123e8 <__sflush_r+0x11c>
   123e0:	00098513          	mv	a0,s3
   123e4:	291000ef          	jal	ra,12e74 <_free_r>
   123e8:	02042823          	sw	zero,48(s0)
   123ec:	00000513          	li	a0,0
   123f0:	01c12083          	lw	ra,28(sp)
   123f4:	01812403          	lw	s0,24(sp)
   123f8:	01412483          	lw	s1,20(sp)
   123fc:	01012903          	lw	s2,16(sp)
   12400:	00c12983          	lw	s3,12(sp)
   12404:	02010113          	addi	sp,sp,32
   12408:	00008067          	ret
   1240c:	0105a903          	lw	s2,16(a1)
   12410:	fc090ee3          	beqz	s2,123ec <__sflush_r+0x120>
   12414:	0005a483          	lw	s1,0(a1)
   12418:	01079713          	slli	a4,a5,0x10
   1241c:	01075713          	srli	a4,a4,0x10
   12420:	00377713          	andi	a4,a4,3
   12424:	0125a023          	sw	s2,0(a1)
   12428:	412484b3          	sub	s1,s1,s2
   1242c:	00000793          	li	a5,0
   12430:	00071463          	bnez	a4,12438 <__sflush_r+0x16c>
   12434:	0145a783          	lw	a5,20(a1)
   12438:	00f42423          	sw	a5,8(s0)
   1243c:	00904863          	bgtz	s1,1244c <__sflush_r+0x180>
   12440:	fadff06f          	j	123ec <__sflush_r+0x120>
   12444:	00a90933          	add	s2,s2,a0
   12448:	fa9052e3          	blez	s1,123ec <__sflush_r+0x120>
   1244c:	02442783          	lw	a5,36(s0)
   12450:	01c42583          	lw	a1,28(s0)
   12454:	00048693          	mv	a3,s1
   12458:	00090613          	mv	a2,s2
   1245c:	00098513          	mv	a0,s3
   12460:	000780e7          	jalr	a5
   12464:	40a484b3          	sub	s1,s1,a0
   12468:	fca04ee3          	bgtz	a0,12444 <__sflush_r+0x178>
   1246c:	00c45783          	lhu	a5,12(s0)
   12470:	fff00513          	li	a0,-1
   12474:	0407e793          	ori	a5,a5,64
   12478:	01c12083          	lw	ra,28(sp)
   1247c:	00f41623          	sh	a5,12(s0)
   12480:	01812403          	lw	s0,24(sp)
   12484:	01412483          	lw	s1,20(sp)
   12488:	01012903          	lw	s2,16(sp)
   1248c:	00c12983          	lw	s3,12(sp)
   12490:	02010113          	addi	sp,sp,32
   12494:	00008067          	ret
   12498:	03c5a703          	lw	a4,60(a1)
   1249c:	e6e04ae3          	bgtz	a4,12310 <__sflush_r+0x44>
   124a0:	f4dff06f          	j	123ec <__sflush_r+0x120>
   124a4:	05042503          	lw	a0,80(s0)
   124a8:	eb5ff06f          	j	1235c <__sflush_r+0x90>
   124ac:	00c45783          	lhu	a5,12(s0)
   124b0:	fffff737          	lui	a4,0xfffff
   124b4:	7ff70713          	addi	a4,a4,2047 # fffff7ff <__BSS_END__+0xfffa488f>
   124b8:	00e7f7b3          	and	a5,a5,a4
   124bc:	01042683          	lw	a3,16(s0)
   124c0:	01079793          	slli	a5,a5,0x10
   124c4:	4107d793          	srai	a5,a5,0x10
   124c8:	00c7d713          	srli	a4,a5,0xc
   124cc:	00f41623          	sh	a5,12(s0)
   124d0:	00042223          	sw	zero,4(s0)
   124d4:	00d42023          	sw	a3,0(s0)
   124d8:	00177793          	andi	a5,a4,1
   124dc:	ee0788e3          	beqz	a5,123cc <__sflush_r+0x100>
   124e0:	04a42823          	sw	a0,80(s0)
   124e4:	ee9ff06f          	j	123cc <__sflush_r+0x100>
   124e8:	0009a783          	lw	a5,0(s3)
   124ec:	e60782e3          	beqz	a5,12350 <__sflush_r+0x84>
   124f0:	01d00713          	li	a4,29
   124f4:	02e78863          	beq	a5,a4,12524 <__sflush_r+0x258>
   124f8:	01600713          	li	a4,22
   124fc:	02e78463          	beq	a5,a4,12524 <__sflush_r+0x258>
   12500:	00c45783          	lhu	a5,12(s0)
   12504:	0407e793          	ori	a5,a5,64
   12508:	00f41623          	sh	a5,12(s0)
   1250c:	ee5ff06f          	j	123f0 <__sflush_r+0x124>
   12510:	fffff737          	lui	a4,0xfffff
   12514:	7ff70713          	addi	a4,a4,2047 # fffff7ff <__BSS_END__+0xfffa488f>
   12518:	01042683          	lw	a3,16(s0)
   1251c:	00e7f7b3          	and	a5,a5,a4
   12520:	fa9ff06f          	j	124c8 <__sflush_r+0x1fc>
   12524:	0099a023          	sw	s1,0(s3)
   12528:	00000513          	li	a0,0
   1252c:	ec5ff06f          	j	123f0 <__sflush_r+0x124>

00012530 <_fflush_r>:
   12530:	fe010113          	addi	sp,sp,-32
   12534:	00812c23          	sw	s0,24(sp)
   12538:	00112e23          	sw	ra,28(sp)
   1253c:	00050413          	mv	s0,a0
   12540:	00050663          	beqz	a0,1254c <_fflush_r+0x1c>
   12544:	03852783          	lw	a5,56(a0)
   12548:	02078063          	beqz	a5,12568 <_fflush_r+0x38>
   1254c:	00c59783          	lh	a5,12(a1)
   12550:	02079663          	bnez	a5,1257c <_fflush_r+0x4c>
   12554:	01c12083          	lw	ra,28(sp)
   12558:	01812403          	lw	s0,24(sp)
   1255c:	00000513          	li	a0,0
   12560:	02010113          	addi	sp,sp,32
   12564:	00008067          	ret
   12568:	00b12623          	sw	a1,12(sp)
   1256c:	554000ef          	jal	ra,12ac0 <__sinit>
   12570:	00c12583          	lw	a1,12(sp)
   12574:	00c59783          	lh	a5,12(a1)
   12578:	fc078ee3          	beqz	a5,12554 <_fflush_r+0x24>
   1257c:	00040513          	mv	a0,s0
   12580:	01812403          	lw	s0,24(sp)
   12584:	01c12083          	lw	ra,28(sp)
   12588:	02010113          	addi	sp,sp,32
   1258c:	d41ff06f          	j	122cc <__sflush_r>

00012590 <fflush>:
   12590:	06050663          	beqz	a0,125fc <fflush+0x6c>
   12594:	fe010113          	addi	sp,sp,-32
   12598:	00812c23          	sw	s0,24(sp)
   1259c:	00112e23          	sw	ra,28(sp)
   125a0:	00050413          	mv	s0,a0
   125a4:	9141a503          	lw	a0,-1772(gp) # 38efc <_impure_ptr>
   125a8:	00050663          	beqz	a0,125b4 <fflush+0x24>
   125ac:	03852783          	lw	a5,56(a0)
   125b0:	02078a63          	beqz	a5,125e4 <fflush+0x54>
   125b4:	00c41783          	lh	a5,12(s0)
   125b8:	00079c63          	bnez	a5,125d0 <fflush+0x40>
   125bc:	01c12083          	lw	ra,28(sp)
   125c0:	01812403          	lw	s0,24(sp)
   125c4:	00000513          	li	a0,0
   125c8:	02010113          	addi	sp,sp,32
   125cc:	00008067          	ret
   125d0:	00040593          	mv	a1,s0
   125d4:	01812403          	lw	s0,24(sp)
   125d8:	01c12083          	lw	ra,28(sp)
   125dc:	02010113          	addi	sp,sp,32
   125e0:	cedff06f          	j	122cc <__sflush_r>
   125e4:	00a12623          	sw	a0,12(sp)
   125e8:	4d8000ef          	jal	ra,12ac0 <__sinit>
   125ec:	00c41783          	lh	a5,12(s0)
   125f0:	00c12503          	lw	a0,12(sp)
   125f4:	fc0784e3          	beqz	a5,125bc <fflush+0x2c>
   125f8:	fd9ff06f          	j	125d0 <fflush+0x40>
   125fc:	00000597          	auipc	a1,0x0
   12600:	f3458593          	addi	a1,a1,-204 # 12530 <_fflush_r>
   12604:	9081a503          	lw	a0,-1784(gp) # 38ef0 <_global_impure_ptr>
   12608:	1c80106f          	j	137d0 <_fwalk_reent>

0001260c <_fgets_r>:
   1260c:	00100793          	li	a5,1
   12610:	12c7dc63          	bge	a5,a2,12748 <_fgets_r+0x13c>
   12614:	fe010113          	addi	sp,sp,-32
   12618:	00812c23          	sw	s0,24(sp)
   1261c:	01212823          	sw	s2,16(sp)
   12620:	01312623          	sw	s3,12(sp)
   12624:	01412423          	sw	s4,8(sp)
   12628:	00112e23          	sw	ra,28(sp)
   1262c:	00912a23          	sw	s1,20(sp)
   12630:	01512223          	sw	s5,4(sp)
   12634:	01612023          	sw	s6,0(sp)
   12638:	00060913          	mv	s2,a2
   1263c:	00050a13          	mv	s4,a0
   12640:	00058993          	mv	s3,a1
   12644:	00068413          	mv	s0,a3
   12648:	00050663          	beqz	a0,12654 <_fgets_r+0x48>
   1264c:	03852783          	lw	a5,56(a0)
   12650:	0e078463          	beqz	a5,12738 <_fgets_r+0x12c>
   12654:	fff90913          	addi	s2,s2,-1
   12658:	00098a93          	mv	s5,s3
   1265c:	0240006f          	j	12680 <_fgets_r+0x74>
   12660:	00042783          	lw	a5,0(s0)
   12664:	40970733          	sub	a4,a4,s1
   12668:	009a8ab3          	add	s5,s5,s1
   1266c:	009784b3          	add	s1,a5,s1
   12670:	00e42223          	sw	a4,4(s0)
   12674:	00942023          	sw	s1,0(s0)
   12678:	585010ef          	jal	ra,143fc <memcpy>
   1267c:	08090663          	beqz	s2,12708 <_fgets_r+0xfc>
   12680:	00442783          	lw	a5,4(s0)
   12684:	00040593          	mv	a1,s0
   12688:	000a0513          	mv	a0,s4
   1268c:	00079863          	bnez	a5,1269c <_fgets_r+0x90>
   12690:	2f8020ef          	jal	ra,14988 <__srefill_r>
   12694:	06051863          	bnez	a0,12704 <_fgets_r+0xf8>
   12698:	00442783          	lw	a5,4(s0)
   1269c:	00042b03          	lw	s6,0(s0)
   126a0:	00a00593          	li	a1,10
   126a4:	00090493          	mv	s1,s2
   126a8:	0127f463          	bgeu	a5,s2,126b0 <_fgets_r+0xa4>
   126ac:	00078493          	mv	s1,a5
   126b0:	00048613          	mv	a2,s1
   126b4:	000b0513          	mv	a0,s6
   126b8:	47d010ef          	jal	ra,14334 <memchr>
   126bc:	00050793          	mv	a5,a0
   126c0:	00442703          	lw	a4,4(s0)
   126c4:	000a8513          	mv	a0,s5
   126c8:	00048613          	mv	a2,s1
   126cc:	000b0593          	mv	a1,s6
   126d0:	40990933          	sub	s2,s2,s1
   126d4:	f80786e3          	beqz	a5,12660 <_fgets_r+0x54>
   126d8:	00178793          	addi	a5,a5,1
   126dc:	416784b3          	sub	s1,a5,s6
   126e0:	40970733          	sub	a4,a4,s1
   126e4:	00048613          	mv	a2,s1
   126e8:	00e42223          	sw	a4,4(s0)
   126ec:	00f42023          	sw	a5,0(s0)
   126f0:	50d010ef          	jal	ra,143fc <memcpy>
   126f4:	009a84b3          	add	s1,s5,s1
   126f8:	00048023          	sb	zero,0(s1)
   126fc:	00098513          	mv	a0,s3
   12700:	0100006f          	j	12710 <_fgets_r+0x104>
   12704:	033a8e63          	beq	s5,s3,12740 <_fgets_r+0x134>
   12708:	000a8023          	sb	zero,0(s5)
   1270c:	00098513          	mv	a0,s3
   12710:	01c12083          	lw	ra,28(sp)
   12714:	01812403          	lw	s0,24(sp)
   12718:	01412483          	lw	s1,20(sp)
   1271c:	01012903          	lw	s2,16(sp)
   12720:	00c12983          	lw	s3,12(sp)
   12724:	00812a03          	lw	s4,8(sp)
   12728:	00412a83          	lw	s5,4(sp)
   1272c:	00012b03          	lw	s6,0(sp)
   12730:	02010113          	addi	sp,sp,32
   12734:	00008067          	ret
   12738:	388000ef          	jal	ra,12ac0 <__sinit>
   1273c:	f19ff06f          	j	12654 <_fgets_r+0x48>
   12740:	00000513          	li	a0,0
   12744:	fcdff06f          	j	12710 <_fgets_r+0x104>
   12748:	00000513          	li	a0,0
   1274c:	00008067          	ret

00012750 <fgets>:
   12750:	00060693          	mv	a3,a2
   12754:	00058613          	mv	a2,a1
   12758:	00050593          	mv	a1,a0
   1275c:	9141a503          	lw	a0,-1772(gp) # 38efc <_impure_ptr>
   12760:	eadff06f          	j	1260c <_fgets_r>

00012764 <__fp_lock>:
   12764:	00000513          	li	a0,0
   12768:	00008067          	ret

0001276c <_cleanup_r>:
   1276c:	00000597          	auipc	a1,0x0
   12770:	a7c58593          	addi	a1,a1,-1412 # 121e8 <_fclose_r>
   12774:	05c0106f          	j	137d0 <_fwalk_reent>

00012778 <__fp_unlock>:
   12778:	00000513          	li	a0,0
   1277c:	00008067          	ret

00012780 <__sinit.part.0>:
   12780:	fe010113          	addi	sp,sp,-32
   12784:	00112e23          	sw	ra,28(sp)
   12788:	00812c23          	sw	s0,24(sp)
   1278c:	00912a23          	sw	s1,20(sp)
   12790:	01212823          	sw	s2,16(sp)
   12794:	01312623          	sw	s3,12(sp)
   12798:	01412423          	sw	s4,8(sp)
   1279c:	01512223          	sw	s5,4(sp)
   127a0:	01612023          	sw	s6,0(sp)
   127a4:	00452403          	lw	s0,4(a0)
   127a8:	00000717          	auipc	a4,0x0
   127ac:	fc470713          	addi	a4,a4,-60 # 1276c <_cleanup_r>
   127b0:	02e52e23          	sw	a4,60(a0)
   127b4:	2ec50793          	addi	a5,a0,748
   127b8:	00300713          	li	a4,3
   127bc:	2ee52223          	sw	a4,740(a0)
   127c0:	2ef52423          	sw	a5,744(a0)
   127c4:	2e052023          	sw	zero,736(a0)
   127c8:	00400793          	li	a5,4
   127cc:	00050913          	mv	s2,a0
   127d0:	00f42623          	sw	a5,12(s0)
   127d4:	00800613          	li	a2,8
   127d8:	00000593          	li	a1,0
   127dc:	06042223          	sw	zero,100(s0)
   127e0:	00042023          	sw	zero,0(s0)
   127e4:	00042223          	sw	zero,4(s0)
   127e8:	00042423          	sw	zero,8(s0)
   127ec:	00042823          	sw	zero,16(s0)
   127f0:	00042a23          	sw	zero,20(s0)
   127f4:	00042c23          	sw	zero,24(s0)
   127f8:	05c40513          	addi	a0,s0,92
   127fc:	51d010ef          	jal	ra,14518 <memset>
   12800:	00892483          	lw	s1,8(s2)
   12804:	00002b17          	auipc	s6,0x2
   12808:	500b0b13          	addi	s6,s6,1280 # 14d04 <__sread>
   1280c:	00002a97          	auipc	s5,0x2
   12810:	55ca8a93          	addi	s5,s5,1372 # 14d68 <__swrite>
   12814:	00002a17          	auipc	s4,0x2
   12818:	5dca0a13          	addi	s4,s4,1500 # 14df0 <__sseek>
   1281c:	00002997          	auipc	s3,0x2
   12820:	63c98993          	addi	s3,s3,1596 # 14e58 <__sclose>
   12824:	000107b7          	lui	a5,0x10
   12828:	03642023          	sw	s6,32(s0)
   1282c:	03542223          	sw	s5,36(s0)
   12830:	03442423          	sw	s4,40(s0)
   12834:	03342623          	sw	s3,44(s0)
   12838:	00842e23          	sw	s0,28(s0)
   1283c:	00978793          	addi	a5,a5,9 # 10009 <register_fini-0x6b>
   12840:	00f4a623          	sw	a5,12(s1)
   12844:	00800613          	li	a2,8
   12848:	00000593          	li	a1,0
   1284c:	0604a223          	sw	zero,100(s1)
   12850:	0004a023          	sw	zero,0(s1)
   12854:	0004a223          	sw	zero,4(s1)
   12858:	0004a423          	sw	zero,8(s1)
   1285c:	0004a823          	sw	zero,16(s1)
   12860:	0004aa23          	sw	zero,20(s1)
   12864:	0004ac23          	sw	zero,24(s1)
   12868:	05c48513          	addi	a0,s1,92
   1286c:	4ad010ef          	jal	ra,14518 <memset>
   12870:	00c92403          	lw	s0,12(s2)
   12874:	000207b7          	lui	a5,0x20
   12878:	0364a023          	sw	s6,32(s1)
   1287c:	0354a223          	sw	s5,36(s1)
   12880:	0344a423          	sw	s4,40(s1)
   12884:	0334a623          	sw	s3,44(s1)
   12888:	0094ae23          	sw	s1,28(s1)
   1288c:	01278793          	addi	a5,a5,18 # 20012 <__pow5mult+0x11e>
   12890:	00f42623          	sw	a5,12(s0)
   12894:	06042223          	sw	zero,100(s0)
   12898:	00042023          	sw	zero,0(s0)
   1289c:	00042223          	sw	zero,4(s0)
   128a0:	00042423          	sw	zero,8(s0)
   128a4:	00042823          	sw	zero,16(s0)
   128a8:	00042a23          	sw	zero,20(s0)
   128ac:	00042c23          	sw	zero,24(s0)
   128b0:	05c40513          	addi	a0,s0,92
   128b4:	00800613          	li	a2,8
   128b8:	00000593          	li	a1,0
   128bc:	45d010ef          	jal	ra,14518 <memset>
   128c0:	01c12083          	lw	ra,28(sp)
   128c4:	03642023          	sw	s6,32(s0)
   128c8:	03542223          	sw	s5,36(s0)
   128cc:	03442423          	sw	s4,40(s0)
   128d0:	03342623          	sw	s3,44(s0)
   128d4:	00842e23          	sw	s0,28(s0)
   128d8:	01812403          	lw	s0,24(sp)
   128dc:	00100793          	li	a5,1
   128e0:	02f92c23          	sw	a5,56(s2)
   128e4:	01412483          	lw	s1,20(sp)
   128e8:	01012903          	lw	s2,16(sp)
   128ec:	00c12983          	lw	s3,12(sp)
   128f0:	00812a03          	lw	s4,8(sp)
   128f4:	00412a83          	lw	s5,4(sp)
   128f8:	00012b03          	lw	s6,0(sp)
   128fc:	02010113          	addi	sp,sp,32
   12900:	00008067          	ret

00012904 <__sfmoreglue>:
   12904:	ff010113          	addi	sp,sp,-16
   12908:	fff58613          	addi	a2,a1,-1
   1290c:	00812423          	sw	s0,8(sp)
   12910:	00161413          	slli	s0,a2,0x1
   12914:	00c40433          	add	s0,s0,a2
   12918:	00241413          	slli	s0,s0,0x2
   1291c:	00c40433          	add	s0,s0,a2
   12920:	00341413          	slli	s0,s0,0x3
   12924:	01212023          	sw	s2,0(sp)
   12928:	00058913          	mv	s2,a1
   1292c:	07440593          	addi	a1,s0,116
   12930:	00912223          	sw	s1,4(sp)
   12934:	00112623          	sw	ra,12(sp)
   12938:	240010ef          	jal	ra,13b78 <_malloc_r>
   1293c:	00050493          	mv	s1,a0
   12940:	02050063          	beqz	a0,12960 <__sfmoreglue+0x5c>
   12944:	00c50513          	addi	a0,a0,12
   12948:	0004a023          	sw	zero,0(s1)
   1294c:	0124a223          	sw	s2,4(s1)
   12950:	00a4a423          	sw	a0,8(s1)
   12954:	06840613          	addi	a2,s0,104
   12958:	00000593          	li	a1,0
   1295c:	3bd010ef          	jal	ra,14518 <memset>
   12960:	00c12083          	lw	ra,12(sp)
   12964:	00812403          	lw	s0,8(sp)
   12968:	00012903          	lw	s2,0(sp)
   1296c:	00048513          	mv	a0,s1
   12970:	00412483          	lw	s1,4(sp)
   12974:	01010113          	addi	sp,sp,16
   12978:	00008067          	ret

0001297c <__sfp>:
   1297c:	fe010113          	addi	sp,sp,-32
   12980:	01212823          	sw	s2,16(sp)
   12984:	9081a903          	lw	s2,-1784(gp) # 38ef0 <_global_impure_ptr>
   12988:	03892783          	lw	a5,56(s2)
   1298c:	01312623          	sw	s3,12(sp)
   12990:	00112e23          	sw	ra,28(sp)
   12994:	00812c23          	sw	s0,24(sp)
   12998:	00912a23          	sw	s1,20(sp)
   1299c:	01412423          	sw	s4,8(sp)
   129a0:	00050993          	mv	s3,a0
   129a4:	0a078a63          	beqz	a5,12a58 <__sfp+0xdc>
   129a8:	2e090913          	addi	s2,s2,736
   129ac:	fff00493          	li	s1,-1
   129b0:	00400a13          	li	s4,4
   129b4:	00492783          	lw	a5,4(s2)
   129b8:	00892403          	lw	s0,8(s2)
   129bc:	fff78793          	addi	a5,a5,-1
   129c0:	0007d863          	bgez	a5,129d0 <__sfp+0x54>
   129c4:	0840006f          	j	12a48 <__sfp+0xcc>
   129c8:	06840413          	addi	s0,s0,104
   129cc:	06978e63          	beq	a5,s1,12a48 <__sfp+0xcc>
   129d0:	00c41703          	lh	a4,12(s0)
   129d4:	fff78793          	addi	a5,a5,-1
   129d8:	fe0718e3          	bnez	a4,129c8 <__sfp+0x4c>
   129dc:	ffff07b7          	lui	a5,0xffff0
   129e0:	00178793          	addi	a5,a5,1 # ffff0001 <__BSS_END__+0xfff95091>
   129e4:	06042223          	sw	zero,100(s0)
   129e8:	00042023          	sw	zero,0(s0)
   129ec:	00042223          	sw	zero,4(s0)
   129f0:	00042423          	sw	zero,8(s0)
   129f4:	00f42623          	sw	a5,12(s0)
   129f8:	00042823          	sw	zero,16(s0)
   129fc:	00042a23          	sw	zero,20(s0)
   12a00:	00042c23          	sw	zero,24(s0)
   12a04:	00800613          	li	a2,8
   12a08:	00000593          	li	a1,0
   12a0c:	05c40513          	addi	a0,s0,92
   12a10:	309010ef          	jal	ra,14518 <memset>
   12a14:	02042823          	sw	zero,48(s0)
   12a18:	02042a23          	sw	zero,52(s0)
   12a1c:	04042223          	sw	zero,68(s0)
   12a20:	04042423          	sw	zero,72(s0)
   12a24:	01c12083          	lw	ra,28(sp)
   12a28:	00040513          	mv	a0,s0
   12a2c:	01812403          	lw	s0,24(sp)
   12a30:	01412483          	lw	s1,20(sp)
   12a34:	01012903          	lw	s2,16(sp)
   12a38:	00c12983          	lw	s3,12(sp)
   12a3c:	00812a03          	lw	s4,8(sp)
   12a40:	02010113          	addi	sp,sp,32
   12a44:	00008067          	ret
   12a48:	00092403          	lw	s0,0(s2)
   12a4c:	00040c63          	beqz	s0,12a64 <__sfp+0xe8>
   12a50:	00040913          	mv	s2,s0
   12a54:	f61ff06f          	j	129b4 <__sfp+0x38>
   12a58:	00090513          	mv	a0,s2
   12a5c:	d25ff0ef          	jal	ra,12780 <__sinit.part.0>
   12a60:	f49ff06f          	j	129a8 <__sfp+0x2c>
   12a64:	1ac00593          	li	a1,428
   12a68:	00098513          	mv	a0,s3
   12a6c:	10c010ef          	jal	ra,13b78 <_malloc_r>
   12a70:	00050413          	mv	s0,a0
   12a74:	02050663          	beqz	a0,12aa0 <__sfp+0x124>
   12a78:	00c50513          	addi	a0,a0,12
   12a7c:	00042023          	sw	zero,0(s0)
   12a80:	01442223          	sw	s4,4(s0)
   12a84:	00a42423          	sw	a0,8(s0)
   12a88:	1a000613          	li	a2,416
   12a8c:	00000593          	li	a1,0
   12a90:	289010ef          	jal	ra,14518 <memset>
   12a94:	00892023          	sw	s0,0(s2)
   12a98:	00040913          	mv	s2,s0
   12a9c:	f19ff06f          	j	129b4 <__sfp+0x38>
   12aa0:	00092023          	sw	zero,0(s2)
   12aa4:	00c00793          	li	a5,12
   12aa8:	00f9a023          	sw	a5,0(s3)
   12aac:	f79ff06f          	j	12a24 <__sfp+0xa8>

00012ab0 <_cleanup>:
   12ab0:	fffff597          	auipc	a1,0xfffff
   12ab4:	73858593          	addi	a1,a1,1848 # 121e8 <_fclose_r>
   12ab8:	9081a503          	lw	a0,-1784(gp) # 38ef0 <_global_impure_ptr>
   12abc:	5150006f          	j	137d0 <_fwalk_reent>

00012ac0 <__sinit>:
   12ac0:	03852783          	lw	a5,56(a0)
   12ac4:	00078463          	beqz	a5,12acc <__sinit+0xc>
   12ac8:	00008067          	ret
   12acc:	cb5ff06f          	j	12780 <__sinit.part.0>

00012ad0 <__sfp_lock_acquire>:
   12ad0:	00008067          	ret

00012ad4 <__sfp_lock_release>:
   12ad4:	00008067          	ret

00012ad8 <__sinit_lock_acquire>:
   12ad8:	00008067          	ret

00012adc <__sinit_lock_release>:
   12adc:	00008067          	ret

00012ae0 <__fp_lock_all>:
   12ae0:	00000597          	auipc	a1,0x0
   12ae4:	c8458593          	addi	a1,a1,-892 # 12764 <__fp_lock>
   12ae8:	9141a503          	lw	a0,-1772(gp) # 38efc <_impure_ptr>
   12aec:	4410006f          	j	1372c <_fwalk>

00012af0 <__fp_unlock_all>:
   12af0:	00000597          	auipc	a1,0x0
   12af4:	c8858593          	addi	a1,a1,-888 # 12778 <__fp_unlock>
   12af8:	9141a503          	lw	a0,-1772(gp) # 38efc <_impure_ptr>
   12afc:	4310006f          	j	1372c <_fwalk>

00012b00 <_fiprintf_r>:
   12b00:	fc010113          	addi	sp,sp,-64
   12b04:	02c10313          	addi	t1,sp,44
   12b08:	02d12623          	sw	a3,44(sp)
   12b0c:	00030693          	mv	a3,t1
   12b10:	00112e23          	sw	ra,28(sp)
   12b14:	02e12823          	sw	a4,48(sp)
   12b18:	02f12a23          	sw	a5,52(sp)
   12b1c:	03012c23          	sw	a6,56(sp)
   12b20:	03112e23          	sw	a7,60(sp)
   12b24:	00612623          	sw	t1,12(sp)
   12b28:	0a0050ef          	jal	ra,17bc8 <_vfiprintf_r>
   12b2c:	01c12083          	lw	ra,28(sp)
   12b30:	04010113          	addi	sp,sp,64
   12b34:	00008067          	ret

00012b38 <fiprintf>:
   12b38:	fc010113          	addi	sp,sp,-64
   12b3c:	02810313          	addi	t1,sp,40
   12b40:	02c12423          	sw	a2,40(sp)
   12b44:	02d12623          	sw	a3,44(sp)
   12b48:	00058613          	mv	a2,a1
   12b4c:	00030693          	mv	a3,t1
   12b50:	00050593          	mv	a1,a0
   12b54:	9141a503          	lw	a0,-1772(gp) # 38efc <_impure_ptr>
   12b58:	00112e23          	sw	ra,28(sp)
   12b5c:	02e12823          	sw	a4,48(sp)
   12b60:	02f12a23          	sw	a5,52(sp)
   12b64:	03012c23          	sw	a6,56(sp)
   12b68:	03112e23          	sw	a7,60(sp)
   12b6c:	00612623          	sw	t1,12(sp)
   12b70:	058050ef          	jal	ra,17bc8 <_vfiprintf_r>
   12b74:	01c12083          	lw	ra,28(sp)
   12b78:	04010113          	addi	sp,sp,64
   12b7c:	00008067          	ret

00012b80 <_fopen_r>:
   12b80:	fd010113          	addi	sp,sp,-48
   12b84:	00060713          	mv	a4,a2
   12b88:	01312e23          	sw	s3,28(sp)
   12b8c:	00c10613          	addi	a2,sp,12
   12b90:	00058993          	mv	s3,a1
   12b94:	00070593          	mv	a1,a4
   12b98:	03212023          	sw	s2,32(sp)
   12b9c:	02112623          	sw	ra,44(sp)
   12ba0:	02812423          	sw	s0,40(sp)
   12ba4:	02912223          	sw	s1,36(sp)
   12ba8:	00050913          	mv	s2,a0
   12bac:	298090ef          	jal	ra,1be44 <__sflags>
   12bb0:	0a050063          	beqz	a0,12c50 <_fopen_r+0xd0>
   12bb4:	00050493          	mv	s1,a0
   12bb8:	00090513          	mv	a0,s2
   12bbc:	dc1ff0ef          	jal	ra,1297c <__sfp>
   12bc0:	00050413          	mv	s0,a0
   12bc4:	08050663          	beqz	a0,12c50 <_fopen_r+0xd0>
   12bc8:	00c12603          	lw	a2,12(sp)
   12bcc:	1b600693          	li	a3,438
   12bd0:	00098593          	mv	a1,s3
   12bd4:	00090513          	mv	a0,s2
   12bd8:	225010ef          	jal	ra,145fc <_open_r>
   12bdc:	06054463          	bltz	a0,12c44 <_fopen_r+0xc4>
   12be0:	00002797          	auipc	a5,0x2
   12be4:	12478793          	addi	a5,a5,292 # 14d04 <__sread>
   12be8:	02f42023          	sw	a5,32(s0)
   12bec:	00002797          	auipc	a5,0x2
   12bf0:	17c78793          	addi	a5,a5,380 # 14d68 <__swrite>
   12bf4:	02f42223          	sw	a5,36(s0)
   12bf8:	00002797          	auipc	a5,0x2
   12bfc:	1f878793          	addi	a5,a5,504 # 14df0 <__sseek>
   12c00:	02f42423          	sw	a5,40(s0)
   12c04:	00002797          	auipc	a5,0x2
   12c08:	25478793          	addi	a5,a5,596 # 14e58 <__sclose>
   12c0c:	00941623          	sh	s1,12(s0)
   12c10:	00a41723          	sh	a0,14(s0)
   12c14:	00842e23          	sw	s0,28(s0)
   12c18:	02f42623          	sw	a5,44(s0)
   12c1c:	1004f493          	andi	s1,s1,256
   12c20:	04049a63          	bnez	s1,12c74 <_fopen_r+0xf4>
   12c24:	02c12083          	lw	ra,44(sp)
   12c28:	00040513          	mv	a0,s0
   12c2c:	02812403          	lw	s0,40(sp)
   12c30:	02412483          	lw	s1,36(sp)
   12c34:	02012903          	lw	s2,32(sp)
   12c38:	01c12983          	lw	s3,28(sp)
   12c3c:	03010113          	addi	sp,sp,48
   12c40:	00008067          	ret
   12c44:	e8dff0ef          	jal	ra,12ad0 <__sfp_lock_acquire>
   12c48:	00041623          	sh	zero,12(s0)
   12c4c:	e89ff0ef          	jal	ra,12ad4 <__sfp_lock_release>
   12c50:	00000413          	li	s0,0
   12c54:	02c12083          	lw	ra,44(sp)
   12c58:	00040513          	mv	a0,s0
   12c5c:	02812403          	lw	s0,40(sp)
   12c60:	02412483          	lw	s1,36(sp)
   12c64:	02012903          	lw	s2,32(sp)
   12c68:	01c12983          	lw	s3,28(sp)
   12c6c:	03010113          	addi	sp,sp,48
   12c70:	00008067          	ret
   12c74:	00040593          	mv	a1,s0
   12c78:	00090513          	mv	a0,s2
   12c7c:	00200693          	li	a3,2
   12c80:	00000613          	li	a2,0
   12c84:	4fc000ef          	jal	ra,13180 <_fseek_r>
   12c88:	02c12083          	lw	ra,44(sp)
   12c8c:	00040513          	mv	a0,s0
   12c90:	02812403          	lw	s0,40(sp)
   12c94:	02412483          	lw	s1,36(sp)
   12c98:	02012903          	lw	s2,32(sp)
   12c9c:	01c12983          	lw	s3,28(sp)
   12ca0:	03010113          	addi	sp,sp,48
   12ca4:	00008067          	ret

00012ca8 <fopen>:
   12ca8:	00058613          	mv	a2,a1
   12cac:	00050593          	mv	a1,a0
   12cb0:	9141a503          	lw	a0,-1772(gp) # 38efc <_impure_ptr>
   12cb4:	ecdff06f          	j	12b80 <_fopen_r>

00012cb8 <_fprintf_r>:
   12cb8:	fc010113          	addi	sp,sp,-64
   12cbc:	02c10313          	addi	t1,sp,44
   12cc0:	02d12623          	sw	a3,44(sp)
   12cc4:	00030693          	mv	a3,t1
   12cc8:	00112e23          	sw	ra,28(sp)
   12ccc:	02e12823          	sw	a4,48(sp)
   12cd0:	02f12a23          	sw	a5,52(sp)
   12cd4:	03012c23          	sw	a6,56(sp)
   12cd8:	03112e23          	sw	a7,60(sp)
   12cdc:	00612623          	sw	t1,12(sp)
   12ce0:	258060ef          	jal	ra,18f38 <_vfprintf_r>
   12ce4:	01c12083          	lw	ra,28(sp)
   12ce8:	04010113          	addi	sp,sp,64
   12cec:	00008067          	ret

00012cf0 <fprintf>:
   12cf0:	fc010113          	addi	sp,sp,-64
   12cf4:	02810313          	addi	t1,sp,40
   12cf8:	02c12423          	sw	a2,40(sp)
   12cfc:	02d12623          	sw	a3,44(sp)
   12d00:	00058613          	mv	a2,a1
   12d04:	00030693          	mv	a3,t1
   12d08:	00050593          	mv	a1,a0
   12d0c:	9141a503          	lw	a0,-1772(gp) # 38efc <_impure_ptr>
   12d10:	00112e23          	sw	ra,28(sp)
   12d14:	02e12823          	sw	a4,48(sp)
   12d18:	02f12a23          	sw	a5,52(sp)
   12d1c:	03012c23          	sw	a6,56(sp)
   12d20:	03112e23          	sw	a7,60(sp)
   12d24:	00612623          	sw	t1,12(sp)
   12d28:	210060ef          	jal	ra,18f38 <_vfprintf_r>
   12d2c:	01c12083          	lw	ra,28(sp)
   12d30:	04010113          	addi	sp,sp,64
   12d34:	00008067          	ret

00012d38 <_malloc_trim_r>:
   12d38:	fe010113          	addi	sp,sp,-32
   12d3c:	00812c23          	sw	s0,24(sp)
   12d40:	00912a23          	sw	s1,20(sp)
   12d44:	01212823          	sw	s2,16(sp)
   12d48:	01312623          	sw	s3,12(sp)
   12d4c:	01412423          	sw	s4,8(sp)
   12d50:	00058993          	mv	s3,a1
   12d54:	00112e23          	sw	ra,28(sp)
   12d58:	00026a17          	auipc	s4,0x26
   12d5c:	b08a0a13          	addi	s4,s4,-1272 # 38860 <__malloc_av_>
   12d60:	00050913          	mv	s2,a0
   12d64:	091010ef          	jal	ra,145f4 <__malloc_lock>
   12d68:	008a2703          	lw	a4,8(s4)
   12d6c:	000017b7          	lui	a5,0x1
   12d70:	fef78413          	addi	s0,a5,-17 # fef <register_fini-0xf085>
   12d74:	00472483          	lw	s1,4(a4)
   12d78:	41340433          	sub	s0,s0,s3
   12d7c:	ffc4f493          	andi	s1,s1,-4
   12d80:	00940433          	add	s0,s0,s1
   12d84:	00c45413          	srli	s0,s0,0xc
   12d88:	fff40413          	addi	s0,s0,-1
   12d8c:	00c41413          	slli	s0,s0,0xc
   12d90:	00f44e63          	blt	s0,a5,12dac <_malloc_trim_r+0x74>
   12d94:	00000593          	li	a1,0
   12d98:	00090513          	mv	a0,s2
   12d9c:	5f5010ef          	jal	ra,14b90 <_sbrk_r>
   12da0:	008a2783          	lw	a5,8(s4)
   12da4:	009787b3          	add	a5,a5,s1
   12da8:	02f50863          	beq	a0,a5,12dd8 <_malloc_trim_r+0xa0>
   12dac:	00090513          	mv	a0,s2
   12db0:	049010ef          	jal	ra,145f8 <__malloc_unlock>
   12db4:	01c12083          	lw	ra,28(sp)
   12db8:	01812403          	lw	s0,24(sp)
   12dbc:	01412483          	lw	s1,20(sp)
   12dc0:	01012903          	lw	s2,16(sp)
   12dc4:	00c12983          	lw	s3,12(sp)
   12dc8:	00812a03          	lw	s4,8(sp)
   12dcc:	00000513          	li	a0,0
   12dd0:	02010113          	addi	sp,sp,32
   12dd4:	00008067          	ret
   12dd8:	408005b3          	neg	a1,s0
   12ddc:	00090513          	mv	a0,s2
   12de0:	5b1010ef          	jal	ra,14b90 <_sbrk_r>
   12de4:	fff00793          	li	a5,-1
   12de8:	04f50a63          	beq	a0,a5,12e3c <_malloc_trim_r+0x104>
   12dec:	00048717          	auipc	a4,0x48
   12df0:	15c70713          	addi	a4,a4,348 # 5af48 <__malloc_current_mallinfo>
   12df4:	00072783          	lw	a5,0(a4)
   12df8:	008a2683          	lw	a3,8(s4)
   12dfc:	408484b3          	sub	s1,s1,s0
   12e00:	0014e493          	ori	s1,s1,1
   12e04:	40878433          	sub	s0,a5,s0
   12e08:	00090513          	mv	a0,s2
   12e0c:	0096a223          	sw	s1,4(a3) # 1004 <register_fini-0xf070>
   12e10:	00872023          	sw	s0,0(a4)
   12e14:	7e4010ef          	jal	ra,145f8 <__malloc_unlock>
   12e18:	01c12083          	lw	ra,28(sp)
   12e1c:	01812403          	lw	s0,24(sp)
   12e20:	01412483          	lw	s1,20(sp)
   12e24:	01012903          	lw	s2,16(sp)
   12e28:	00c12983          	lw	s3,12(sp)
   12e2c:	00812a03          	lw	s4,8(sp)
   12e30:	00100513          	li	a0,1
   12e34:	02010113          	addi	sp,sp,32
   12e38:	00008067          	ret
   12e3c:	00000593          	li	a1,0
   12e40:	00090513          	mv	a0,s2
   12e44:	54d010ef          	jal	ra,14b90 <_sbrk_r>
   12e48:	008a2703          	lw	a4,8(s4)
   12e4c:	00f00693          	li	a3,15
   12e50:	40e507b3          	sub	a5,a0,a4
   12e54:	f4f6dce3          	bge	a3,a5,12dac <_malloc_trim_r+0x74>
   12e58:	9181a683          	lw	a3,-1768(gp) # 38f00 <__malloc_sbrk_base>
   12e5c:	40d50533          	sub	a0,a0,a3
   12e60:	0017e793          	ori	a5,a5,1
   12e64:	00048697          	auipc	a3,0x48
   12e68:	0ea6a223          	sw	a0,228(a3) # 5af48 <__malloc_current_mallinfo>
   12e6c:	00f72223          	sw	a5,4(a4)
   12e70:	f3dff06f          	j	12dac <_malloc_trim_r+0x74>

00012e74 <_free_r>:
   12e74:	12058a63          	beqz	a1,12fa8 <_free_r+0x134>
   12e78:	ff010113          	addi	sp,sp,-16
   12e7c:	00812423          	sw	s0,8(sp)
   12e80:	00912223          	sw	s1,4(sp)
   12e84:	00058413          	mv	s0,a1
   12e88:	00050493          	mv	s1,a0
   12e8c:	00112623          	sw	ra,12(sp)
   12e90:	764010ef          	jal	ra,145f4 <__malloc_lock>
   12e94:	ffc42583          	lw	a1,-4(s0)
   12e98:	ff840713          	addi	a4,s0,-8
   12e9c:	00026817          	auipc	a6,0x26
   12ea0:	9c480813          	addi	a6,a6,-1596 # 38860 <__malloc_av_>
   12ea4:	ffe5f793          	andi	a5,a1,-2
   12ea8:	00f70633          	add	a2,a4,a5
   12eac:	00462683          	lw	a3,4(a2)
   12eb0:	00882503          	lw	a0,8(a6)
   12eb4:	ffc6f693          	andi	a3,a3,-4
   12eb8:	1ac50a63          	beq	a0,a2,1306c <_free_r+0x1f8>
   12ebc:	00d62223          	sw	a3,4(a2)
   12ec0:	0015f593          	andi	a1,a1,1
   12ec4:	00d60533          	add	a0,a2,a3
   12ec8:	0a059063          	bnez	a1,12f68 <_free_r+0xf4>
   12ecc:	ff842303          	lw	t1,-8(s0)
   12ed0:	00452583          	lw	a1,4(a0)
   12ed4:	00026897          	auipc	a7,0x26
   12ed8:	99488893          	addi	a7,a7,-1644 # 38868 <__malloc_av_+0x8>
   12edc:	40670733          	sub	a4,a4,t1
   12ee0:	00872503          	lw	a0,8(a4)
   12ee4:	006787b3          	add	a5,a5,t1
   12ee8:	0015f593          	andi	a1,a1,1
   12eec:	15150063          	beq	a0,a7,1302c <_free_r+0x1b8>
   12ef0:	00c72303          	lw	t1,12(a4)
   12ef4:	00652623          	sw	t1,12(a0)
   12ef8:	00a32423          	sw	a0,8(t1) # 10140 <frame_dummy+0x1c>
   12efc:	1e058063          	beqz	a1,130dc <_free_r+0x268>
   12f00:	0017e693          	ori	a3,a5,1
   12f04:	00d72223          	sw	a3,4(a4)
   12f08:	00f62023          	sw	a5,0(a2)
   12f0c:	1ff00693          	li	a3,511
   12f10:	0af6e863          	bltu	a3,a5,12fc0 <_free_r+0x14c>
   12f14:	ff87f693          	andi	a3,a5,-8
   12f18:	00868693          	addi	a3,a3,8
   12f1c:	00482583          	lw	a1,4(a6)
   12f20:	00d806b3          	add	a3,a6,a3
   12f24:	0006a603          	lw	a2,0(a3)
   12f28:	0057d513          	srli	a0,a5,0x5
   12f2c:	00100793          	li	a5,1
   12f30:	00a797b3          	sll	a5,a5,a0
   12f34:	00b7e7b3          	or	a5,a5,a1
   12f38:	ff868593          	addi	a1,a3,-8
   12f3c:	00b72623          	sw	a1,12(a4)
   12f40:	00c72423          	sw	a2,8(a4)
   12f44:	00f82223          	sw	a5,4(a6)
   12f48:	00e6a023          	sw	a4,0(a3)
   12f4c:	00e62623          	sw	a4,12(a2)
   12f50:	00812403          	lw	s0,8(sp)
   12f54:	00c12083          	lw	ra,12(sp)
   12f58:	00048513          	mv	a0,s1
   12f5c:	00412483          	lw	s1,4(sp)
   12f60:	01010113          	addi	sp,sp,16
   12f64:	6940106f          	j	145f8 <__malloc_unlock>
   12f68:	00452583          	lw	a1,4(a0)
   12f6c:	0015f593          	andi	a1,a1,1
   12f70:	02059e63          	bnez	a1,12fac <_free_r+0x138>
   12f74:	00d787b3          	add	a5,a5,a3
   12f78:	00026897          	auipc	a7,0x26
   12f7c:	8f088893          	addi	a7,a7,-1808 # 38868 <__malloc_av_+0x8>
   12f80:	00862683          	lw	a3,8(a2)
   12f84:	0017e513          	ori	a0,a5,1
   12f88:	00f705b3          	add	a1,a4,a5
   12f8c:	17168463          	beq	a3,a7,130f4 <_free_r+0x280>
   12f90:	00c62603          	lw	a2,12(a2)
   12f94:	00c6a623          	sw	a2,12(a3)
   12f98:	00d62423          	sw	a3,8(a2)
   12f9c:	00a72223          	sw	a0,4(a4)
   12fa0:	00f5a023          	sw	a5,0(a1)
   12fa4:	f69ff06f          	j	12f0c <_free_r+0x98>
   12fa8:	00008067          	ret
   12fac:	0017e693          	ori	a3,a5,1
   12fb0:	fed42e23          	sw	a3,-4(s0)
   12fb4:	00f62023          	sw	a5,0(a2)
   12fb8:	1ff00693          	li	a3,511
   12fbc:	f4f6fce3          	bgeu	a3,a5,12f14 <_free_r+0xa0>
   12fc0:	0097d693          	srli	a3,a5,0x9
   12fc4:	00400613          	li	a2,4
   12fc8:	0ed66863          	bltu	a2,a3,130b8 <_free_r+0x244>
   12fcc:	0067d693          	srli	a3,a5,0x6
   12fd0:	03968593          	addi	a1,a3,57
   12fd4:	03868613          	addi	a2,a3,56
   12fd8:	00359593          	slli	a1,a1,0x3
   12fdc:	00b805b3          	add	a1,a6,a1
   12fe0:	0005a683          	lw	a3,0(a1)
   12fe4:	ff858593          	addi	a1,a1,-8
   12fe8:	12d58463          	beq	a1,a3,13110 <_free_r+0x29c>
   12fec:	0046a603          	lw	a2,4(a3)
   12ff0:	ffc67613          	andi	a2,a2,-4
   12ff4:	00c7f663          	bgeu	a5,a2,13000 <_free_r+0x18c>
   12ff8:	0086a683          	lw	a3,8(a3)
   12ffc:	fed598e3          	bne	a1,a3,12fec <_free_r+0x178>
   13000:	00c6a583          	lw	a1,12(a3)
   13004:	00b72623          	sw	a1,12(a4)
   13008:	00d72423          	sw	a3,8(a4)
   1300c:	00812403          	lw	s0,8(sp)
   13010:	00c12083          	lw	ra,12(sp)
   13014:	00e5a423          	sw	a4,8(a1)
   13018:	00048513          	mv	a0,s1
   1301c:	00412483          	lw	s1,4(sp)
   13020:	00e6a623          	sw	a4,12(a3)
   13024:	01010113          	addi	sp,sp,16
   13028:	5d00106f          	j	145f8 <__malloc_unlock>
   1302c:	14059263          	bnez	a1,13170 <_free_r+0x2fc>
   13030:	00c62583          	lw	a1,12(a2)
   13034:	00862603          	lw	a2,8(a2)
   13038:	00f687b3          	add	a5,a3,a5
   1303c:	00812403          	lw	s0,8(sp)
   13040:	00b62623          	sw	a1,12(a2)
   13044:	00c5a423          	sw	a2,8(a1)
   13048:	0017e693          	ori	a3,a5,1
   1304c:	00c12083          	lw	ra,12(sp)
   13050:	00d72223          	sw	a3,4(a4)
   13054:	00048513          	mv	a0,s1
   13058:	00f70733          	add	a4,a4,a5
   1305c:	00412483          	lw	s1,4(sp)
   13060:	00f72023          	sw	a5,0(a4)
   13064:	01010113          	addi	sp,sp,16
   13068:	5900106f          	j	145f8 <__malloc_unlock>
   1306c:	0015f593          	andi	a1,a1,1
   13070:	00d787b3          	add	a5,a5,a3
   13074:	02059063          	bnez	a1,13094 <_free_r+0x220>
   13078:	ff842583          	lw	a1,-8(s0)
   1307c:	40b70733          	sub	a4,a4,a1
   13080:	00c72683          	lw	a3,12(a4)
   13084:	00872603          	lw	a2,8(a4)
   13088:	00b787b3          	add	a5,a5,a1
   1308c:	00d62623          	sw	a3,12(a2)
   13090:	00c6a423          	sw	a2,8(a3)
   13094:	0017e693          	ori	a3,a5,1
   13098:	00d72223          	sw	a3,4(a4)
   1309c:	00e82423          	sw	a4,8(a6)
   130a0:	91c1a703          	lw	a4,-1764(gp) # 38f04 <__malloc_trim_threshold>
   130a4:	eae7e6e3          	bltu	a5,a4,12f50 <_free_r+0xdc>
   130a8:	9341a583          	lw	a1,-1740(gp) # 38f1c <__malloc_top_pad>
   130ac:	00048513          	mv	a0,s1
   130b0:	c89ff0ef          	jal	ra,12d38 <_malloc_trim_r>
   130b4:	e9dff06f          	j	12f50 <_free_r+0xdc>
   130b8:	01400613          	li	a2,20
   130bc:	02d67463          	bgeu	a2,a3,130e4 <_free_r+0x270>
   130c0:	05400613          	li	a2,84
   130c4:	06d66463          	bltu	a2,a3,1312c <_free_r+0x2b8>
   130c8:	00c7d693          	srli	a3,a5,0xc
   130cc:	06f68593          	addi	a1,a3,111
   130d0:	06e68613          	addi	a2,a3,110
   130d4:	00359593          	slli	a1,a1,0x3
   130d8:	f05ff06f          	j	12fdc <_free_r+0x168>
   130dc:	00d787b3          	add	a5,a5,a3
   130e0:	ea1ff06f          	j	12f80 <_free_r+0x10c>
   130e4:	05c68593          	addi	a1,a3,92
   130e8:	05b68613          	addi	a2,a3,91
   130ec:	00359593          	slli	a1,a1,0x3
   130f0:	eedff06f          	j	12fdc <_free_r+0x168>
   130f4:	00e82a23          	sw	a4,20(a6)
   130f8:	00e82823          	sw	a4,16(a6)
   130fc:	01172623          	sw	a7,12(a4)
   13100:	01172423          	sw	a7,8(a4)
   13104:	00a72223          	sw	a0,4(a4)
   13108:	00f5a023          	sw	a5,0(a1)
   1310c:	e45ff06f          	j	12f50 <_free_r+0xdc>
   13110:	00482503          	lw	a0,4(a6)
   13114:	40265613          	srai	a2,a2,0x2
   13118:	00100793          	li	a5,1
   1311c:	00c79633          	sll	a2,a5,a2
   13120:	00a66633          	or	a2,a2,a0
   13124:	00c82223          	sw	a2,4(a6)
   13128:	eddff06f          	j	13004 <_free_r+0x190>
   1312c:	15400613          	li	a2,340
   13130:	00d66c63          	bltu	a2,a3,13148 <_free_r+0x2d4>
   13134:	00f7d693          	srli	a3,a5,0xf
   13138:	07868593          	addi	a1,a3,120
   1313c:	07768613          	addi	a2,a3,119
   13140:	00359593          	slli	a1,a1,0x3
   13144:	e99ff06f          	j	12fdc <_free_r+0x168>
   13148:	55400613          	li	a2,1364
   1314c:	00d66c63          	bltu	a2,a3,13164 <_free_r+0x2f0>
   13150:	0127d693          	srli	a3,a5,0x12
   13154:	07d68593          	addi	a1,a3,125
   13158:	07c68613          	addi	a2,a3,124
   1315c:	00359593          	slli	a1,a1,0x3
   13160:	e7dff06f          	j	12fdc <_free_r+0x168>
   13164:	3f800593          	li	a1,1016
   13168:	07e00613          	li	a2,126
   1316c:	e71ff06f          	j	12fdc <_free_r+0x168>
   13170:	0017e693          	ori	a3,a5,1
   13174:	00d72223          	sw	a3,4(a4)
   13178:	00f62023          	sw	a5,0(a2)
   1317c:	dd5ff06f          	j	12f50 <_free_r+0xdc>

00013180 <_fseek_r>:
   13180:	0180006f          	j	13198 <_fseeko_r>

00013184 <fseek>:
   13184:	00060693          	mv	a3,a2
   13188:	00058613          	mv	a2,a1
   1318c:	00050593          	mv	a1,a0
   13190:	9141a503          	lw	a0,-1772(gp) # 38efc <_impure_ptr>
   13194:	0040006f          	j	13198 <_fseeko_r>

00013198 <_fseeko_r>:
   13198:	f7010113          	addi	sp,sp,-144
   1319c:	08812423          	sw	s0,136(sp)
   131a0:	08912223          	sw	s1,132(sp)
   131a4:	09212023          	sw	s2,128(sp)
   131a8:	07312e23          	sw	s3,124(sp)
   131ac:	08112623          	sw	ra,140(sp)
   131b0:	07412c23          	sw	s4,120(sp)
   131b4:	07512a23          	sw	s5,116(sp)
   131b8:	07612823          	sw	s6,112(sp)
   131bc:	07712623          	sw	s7,108(sp)
   131c0:	00050493          	mv	s1,a0
   131c4:	00058413          	mv	s0,a1
   131c8:	00060993          	mv	s3,a2
   131cc:	00068913          	mv	s2,a3
   131d0:	00050663          	beqz	a0,131dc <_fseeko_r+0x44>
   131d4:	03852783          	lw	a5,56(a0)
   131d8:	06078463          	beqz	a5,13240 <_fseeko_r+0xa8>
   131dc:	00c45783          	lhu	a5,12(s0)
   131e0:	10800713          	li	a4,264
   131e4:	1087f793          	andi	a5,a5,264
   131e8:	06e78663          	beq	a5,a4,13254 <_fseeko_r+0xbc>
   131ec:	02842a83          	lw	s5,40(s0)
   131f0:	380a8a63          	beqz	s5,13584 <_fseeko_r+0x3ec>
   131f4:	00100793          	li	a5,1
   131f8:	06f90663          	beq	s2,a5,13264 <_fseeko_r+0xcc>
   131fc:	ffd97a13          	andi	s4,s2,-3
   13200:	140a0863          	beqz	s4,13350 <_fseeko_r+0x1b8>
   13204:	01600793          	li	a5,22
   13208:	00f4a023          	sw	a5,0(s1)
   1320c:	fff00a13          	li	s4,-1
   13210:	08c12083          	lw	ra,140(sp)
   13214:	08812403          	lw	s0,136(sp)
   13218:	08412483          	lw	s1,132(sp)
   1321c:	08012903          	lw	s2,128(sp)
   13220:	07c12983          	lw	s3,124(sp)
   13224:	07412a83          	lw	s5,116(sp)
   13228:	07012b03          	lw	s6,112(sp)
   1322c:	06c12b83          	lw	s7,108(sp)
   13230:	000a0513          	mv	a0,s4
   13234:	07812a03          	lw	s4,120(sp)
   13238:	09010113          	addi	sp,sp,144
   1323c:	00008067          	ret
   13240:	881ff0ef          	jal	ra,12ac0 <__sinit>
   13244:	00c45783          	lhu	a5,12(s0)
   13248:	10800713          	li	a4,264
   1324c:	1087f793          	andi	a5,a5,264
   13250:	f8e79ee3          	bne	a5,a4,131ec <_fseeko_r+0x54>
   13254:	00040593          	mv	a1,s0
   13258:	00048513          	mv	a0,s1
   1325c:	ad4ff0ef          	jal	ra,12530 <_fflush_r>
   13260:	f8dff06f          	j	131ec <_fseeko_r+0x54>
   13264:	00040593          	mv	a1,s0
   13268:	00048513          	mv	a0,s1
   1326c:	394000ef          	jal	ra,13600 <_ftello_r>
   13270:	fff00793          	li	a5,-1
   13274:	00050a13          	mv	s4,a0
   13278:	f8f50ae3          	beq	a0,a5,1320c <_fseeko_r+0x74>
   1327c:	01042783          	lw	a5,16(s0)
   13280:	00a989b3          	add	s3,s3,a0
   13284:	00100b13          	li	s6,1
   13288:	00000913          	li	s2,0
   1328c:	0c078863          	beqz	a5,1335c <_fseeko_r+0x1c4>
   13290:	00c41683          	lh	a3,12(s0)
   13294:	000017b7          	lui	a5,0x1
   13298:	81a78793          	addi	a5,a5,-2022 # 81a <register_fini-0xf85a>
   1329c:	01069713          	slli	a4,a3,0x10
   132a0:	01075713          	srli	a4,a4,0x10
   132a4:	00f777b3          	and	a5,a4,a5
   132a8:	02079463          	bnez	a5,132d0 <_fseeko_r+0x138>
   132ac:	40077713          	andi	a4,a4,1024
   132b0:	0e071e63          	bnez	a4,133ac <_fseeko_r+0x214>
   132b4:	00002797          	auipc	a5,0x2
   132b8:	b3c78793          	addi	a5,a5,-1220 # 14df0 <__sseek>
   132bc:	0afa8863          	beq	s5,a5,1336c <_fseeko_r+0x1d4>
   132c0:	000017b7          	lui	a5,0x1
   132c4:	80078793          	addi	a5,a5,-2048 # 800 <register_fini-0xf874>
   132c8:	00f6e6b3          	or	a3,a3,a5
   132cc:	00d41623          	sh	a3,12(s0)
   132d0:	00040593          	mv	a1,s0
   132d4:	00048513          	mv	a0,s1
   132d8:	a58ff0ef          	jal	ra,12530 <_fflush_r>
   132dc:	00050a13          	mv	s4,a0
   132e0:	f20516e3          	bnez	a0,1320c <_fseeko_r+0x74>
   132e4:	01c42583          	lw	a1,28(s0)
   132e8:	00090693          	mv	a3,s2
   132ec:	00098613          	mv	a2,s3
   132f0:	00048513          	mv	a0,s1
   132f4:	000a80e7          	jalr	s5
   132f8:	fff00793          	li	a5,-1
   132fc:	f0f508e3          	beq	a0,a5,1320c <_fseeko_r+0x74>
   13300:	03042583          	lw	a1,48(s0)
   13304:	00058c63          	beqz	a1,1331c <_fseeko_r+0x184>
   13308:	04040793          	addi	a5,s0,64
   1330c:	00f58663          	beq	a1,a5,13318 <_fseeko_r+0x180>
   13310:	00048513          	mv	a0,s1
   13314:	b61ff0ef          	jal	ra,12e74 <_free_r>
   13318:	02042823          	sw	zero,48(s0)
   1331c:	00c45783          	lhu	a5,12(s0)
   13320:	01042683          	lw	a3,16(s0)
   13324:	fffff737          	lui	a4,0xfffff
   13328:	7df70713          	addi	a4,a4,2015 # fffff7df <__BSS_END__+0xfffa486f>
   1332c:	00e7f7b3          	and	a5,a5,a4
   13330:	00d42023          	sw	a3,0(s0)
   13334:	00042223          	sw	zero,4(s0)
   13338:	00f41623          	sh	a5,12(s0)
   1333c:	00800613          	li	a2,8
   13340:	00000593          	li	a1,0
   13344:	05c40513          	addi	a0,s0,92
   13348:	1d0010ef          	jal	ra,14518 <memset>
   1334c:	ec5ff06f          	j	13210 <_fseeko_r+0x78>
   13350:	01042783          	lw	a5,16(s0)
   13354:	00000b13          	li	s6,0
   13358:	f2079ce3          	bnez	a5,13290 <_fseeko_r+0xf8>
   1335c:	00040593          	mv	a1,s0
   13360:	00048513          	mv	a0,s1
   13364:	5b4000ef          	jal	ra,13918 <__smakebuf_r>
   13368:	f29ff06f          	j	13290 <_fseeko_r+0xf8>
   1336c:	00e41583          	lh	a1,14(s0)
   13370:	f405c8e3          	bltz	a1,132c0 <_fseeko_r+0x128>
   13374:	00810613          	addi	a2,sp,8
   13378:	00048513          	mv	a0,s1
   1337c:	22c000ef          	jal	ra,135a8 <_fstat_r>
   13380:	1a051663          	bnez	a0,1352c <_fseeko_r+0x394>
   13384:	00c12683          	lw	a3,12(sp)
   13388:	0000f7b7          	lui	a5,0xf
   1338c:	00008737          	lui	a4,0x8
   13390:	00d7f7b3          	and	a5,a5,a3
   13394:	00c41683          	lh	a3,12(s0)
   13398:	f2e794e3          	bne	a5,a4,132c0 <_fseeko_r+0x128>
   1339c:	4006e693          	ori	a3,a3,1024
   133a0:	40000793          	li	a5,1024
   133a4:	04f42623          	sw	a5,76(s0)
   133a8:	00d41623          	sh	a3,12(s0)
   133ac:	00098b93          	mv	s7,s3
   133b0:	10091c63          	bnez	s2,134c8 <_fseeko_r+0x330>
   133b4:	020b1c63          	bnez	s6,133ec <_fseeko_r+0x254>
   133b8:	00c45783          	lhu	a5,12(s0)
   133bc:	00001737          	lui	a4,0x1
   133c0:	00e7f7b3          	and	a5,a5,a4
   133c4:	14078463          	beqz	a5,1350c <_fseeko_r+0x374>
   133c8:	05042503          	lw	a0,80(s0)
   133cc:	00442783          	lw	a5,4(s0)
   133d0:	03042583          	lw	a1,48(s0)
   133d4:	00078713          	mv	a4,a5
   133d8:	40f50a33          	sub	s4,a0,a5
   133dc:	10058a63          	beqz	a1,134f0 <_fseeko_r+0x358>
   133e0:	03c42603          	lw	a2,60(s0)
   133e4:	40ca0a33          	sub	s4,s4,a2
   133e8:	0140006f          	j	133fc <_fseeko_r+0x264>
   133ec:	03042583          	lw	a1,48(s0)
   133f0:	0e058e63          	beqz	a1,134ec <_fseeko_r+0x354>
   133f4:	00442783          	lw	a5,4(s0)
   133f8:	03c42603          	lw	a2,60(s0)
   133fc:	03842703          	lw	a4,56(s0)
   13400:	01042683          	lw	a3,16(s0)
   13404:	00fa0a33          	add	s4,s4,a5
   13408:	40d707b3          	sub	a5,a4,a3
   1340c:	40fa0a33          	sub	s4,s4,a5
   13410:	00c787b3          	add	a5,a5,a2
   13414:	014bc663          	blt	s7,s4,13420 <_fseeko_r+0x288>
   13418:	00fa0733          	add	a4,s4,a5
   1341c:	10ebec63          	bltu	s7,a4,13534 <_fseeko_r+0x39c>
   13420:	04c42a03          	lw	s4,76(s0)
   13424:	01c42583          	lw	a1,28(s0)
   13428:	00000693          	li	a3,0
   1342c:	41400a33          	neg	s4,s4
   13430:	017a7a33          	and	s4,s4,s7
   13434:	000a0613          	mv	a2,s4
   13438:	00048513          	mv	a0,s1
   1343c:	000a80e7          	jalr	s5
   13440:	fff00793          	li	a5,-1
   13444:	e8f506e3          	beq	a0,a5,132d0 <_fseeko_r+0x138>
   13448:	01042783          	lw	a5,16(s0)
   1344c:	03042583          	lw	a1,48(s0)
   13450:	00042223          	sw	zero,4(s0)
   13454:	00f42023          	sw	a5,0(s0)
   13458:	00058c63          	beqz	a1,13470 <_fseeko_r+0x2d8>
   1345c:	04040793          	addi	a5,s0,64
   13460:	00f58663          	beq	a1,a5,1346c <_fseeko_r+0x2d4>
   13464:	00048513          	mv	a0,s1
   13468:	a0dff0ef          	jal	ra,12e74 <_free_r>
   1346c:	02042823          	sw	zero,48(s0)
   13470:	00c45783          	lhu	a5,12(s0)
   13474:	414b8b33          	sub	s6,s7,s4
   13478:	fdf7f793          	andi	a5,a5,-33
   1347c:	00f41623          	sh	a5,12(s0)
   13480:	034b8863          	beq	s7,s4,134b0 <_fseeko_r+0x318>
   13484:	00040593          	mv	a1,s0
   13488:	00048513          	mv	a0,s1
   1348c:	4fc010ef          	jal	ra,14988 <__srefill_r>
   13490:	e40510e3          	bnez	a0,132d0 <_fseeko_r+0x138>
   13494:	00442783          	lw	a5,4(s0)
   13498:	e367ece3          	bltu	a5,s6,132d0 <_fseeko_r+0x138>
   1349c:	00042703          	lw	a4,0(s0)
   134a0:	416787b3          	sub	a5,a5,s6
   134a4:	00f42223          	sw	a5,4(s0)
   134a8:	01670b33          	add	s6,a4,s6
   134ac:	01642023          	sw	s6,0(s0)
   134b0:	00800613          	li	a2,8
   134b4:	00000593          	li	a1,0
   134b8:	05c40513          	addi	a0,s0,92
   134bc:	05c010ef          	jal	ra,14518 <memset>
   134c0:	00000a13          	li	s4,0
   134c4:	d4dff06f          	j	13210 <_fseeko_r+0x78>
   134c8:	00e41583          	lh	a1,14(s0)
   134cc:	00810613          	addi	a2,sp,8
   134d0:	00048513          	mv	a0,s1
   134d4:	0d4000ef          	jal	ra,135a8 <_fstat_r>
   134d8:	de051ce3          	bnez	a0,132d0 <_fseeko_r+0x138>
   134dc:	01812b83          	lw	s7,24(sp)
   134e0:	01798bb3          	add	s7,s3,s7
   134e4:	f00b14e3          	bnez	s6,133ec <_fseeko_r+0x254>
   134e8:	ed1ff06f          	j	133b8 <_fseeko_r+0x220>
   134ec:	00442703          	lw	a4,4(s0)
   134f0:	00042783          	lw	a5,0(s0)
   134f4:	01042683          	lw	a3,16(s0)
   134f8:	00000593          	li	a1,0
   134fc:	40d787b3          	sub	a5,a5,a3
   13500:	40fa0a33          	sub	s4,s4,a5
   13504:	00f707b3          	add	a5,a4,a5
   13508:	f0dff06f          	j	13414 <_fseeko_r+0x27c>
   1350c:	01c42583          	lw	a1,28(s0)
   13510:	00100693          	li	a3,1
   13514:	00000613          	li	a2,0
   13518:	00048513          	mv	a0,s1
   1351c:	000a80e7          	jalr	s5
   13520:	fff00793          	li	a5,-1
   13524:	eaf514e3          	bne	a0,a5,133cc <_fseeko_r+0x234>
   13528:	da9ff06f          	j	132d0 <_fseeko_r+0x138>
   1352c:	00c41683          	lh	a3,12(s0)
   13530:	d91ff06f          	j	132c0 <_fseeko_r+0x128>
   13534:	414b8a33          	sub	s4,s7,s4
   13538:	014686b3          	add	a3,a3,s4
   1353c:	41478a33          	sub	s4,a5,s4
   13540:	00d42023          	sw	a3,0(s0)
   13544:	01442223          	sw	s4,4(s0)
   13548:	00058c63          	beqz	a1,13560 <_fseeko_r+0x3c8>
   1354c:	04040793          	addi	a5,s0,64
   13550:	00f58663          	beq	a1,a5,1355c <_fseeko_r+0x3c4>
   13554:	00048513          	mv	a0,s1
   13558:	91dff0ef          	jal	ra,12e74 <_free_r>
   1355c:	02042823          	sw	zero,48(s0)
   13560:	00c45783          	lhu	a5,12(s0)
   13564:	00800613          	li	a2,8
   13568:	00000593          	li	a1,0
   1356c:	fdf7f793          	andi	a5,a5,-33
   13570:	00f41623          	sh	a5,12(s0)
   13574:	05c40513          	addi	a0,s0,92
   13578:	7a1000ef          	jal	ra,14518 <memset>
   1357c:	00000a13          	li	s4,0
   13580:	c91ff06f          	j	13210 <_fseeko_r+0x78>
   13584:	01d00793          	li	a5,29
   13588:	00f4a023          	sw	a5,0(s1)
   1358c:	fff00a13          	li	s4,-1
   13590:	c81ff06f          	j	13210 <_fseeko_r+0x78>

00013594 <fseeko>:
   13594:	00060693          	mv	a3,a2
   13598:	00058613          	mv	a2,a1
   1359c:	00050593          	mv	a1,a0
   135a0:	9141a503          	lw	a0,-1772(gp) # 38efc <_impure_ptr>
   135a4:	bf5ff06f          	j	13198 <_fseeko_r>

000135a8 <_fstat_r>:
   135a8:	ff010113          	addi	sp,sp,-16
   135ac:	00058713          	mv	a4,a1
   135b0:	00812423          	sw	s0,8(sp)
   135b4:	00060593          	mv	a1,a2
   135b8:	00050413          	mv	s0,a0
   135bc:	00070513          	mv	a0,a4
   135c0:	9201ac23          	sw	zero,-1736(gp) # 38f20 <errno>
   135c4:	00112623          	sw	ra,12(sp)
   135c8:	705190ef          	jal	ra,2d4cc <_fstat>
   135cc:	fff00793          	li	a5,-1
   135d0:	00f50a63          	beq	a0,a5,135e4 <_fstat_r+0x3c>
   135d4:	00c12083          	lw	ra,12(sp)
   135d8:	00812403          	lw	s0,8(sp)
   135dc:	01010113          	addi	sp,sp,16
   135e0:	00008067          	ret
   135e4:	9381a783          	lw	a5,-1736(gp) # 38f20 <errno>
   135e8:	fe0786e3          	beqz	a5,135d4 <_fstat_r+0x2c>
   135ec:	00c12083          	lw	ra,12(sp)
   135f0:	00f42023          	sw	a5,0(s0)
   135f4:	00812403          	lw	s0,8(sp)
   135f8:	01010113          	addi	sp,sp,16
   135fc:	00008067          	ret

00013600 <_ftello_r>:
   13600:	ff010113          	addi	sp,sp,-16
   13604:	00812423          	sw	s0,8(sp)
   13608:	00912223          	sw	s1,4(sp)
   1360c:	00112623          	sw	ra,12(sp)
   13610:	00050493          	mv	s1,a0
   13614:	00058413          	mv	s0,a1
   13618:	00050663          	beqz	a0,13624 <_ftello_r+0x24>
   1361c:	03852783          	lw	a5,56(a0)
   13620:	0a078c63          	beqz	a5,136d8 <_ftello_r+0xd8>
   13624:	02842803          	lw	a6,40(s0)
   13628:	0e080063          	beqz	a6,13708 <_ftello_r+0x108>
   1362c:	00c45783          	lhu	a5,12(s0)
   13630:	00800713          	li	a4,8
   13634:	00c7f693          	andi	a3,a5,12
   13638:	0ae68463          	beq	a3,a4,136e0 <_ftello_r+0xe0>
   1363c:	00001737          	lui	a4,0x1
   13640:	00e7f733          	and	a4,a5,a4
   13644:	04071c63          	bnez	a4,1369c <_ftello_r+0x9c>
   13648:	01c42583          	lw	a1,28(s0)
   1364c:	00100693          	li	a3,1
   13650:	00000613          	li	a2,0
   13654:	00048513          	mv	a0,s1
   13658:	000800e7          	jalr	a6
   1365c:	fff00793          	li	a5,-1
   13660:	0af50c63          	beq	a0,a5,13718 <_ftello_r+0x118>
   13664:	00c45783          	lhu	a5,12(s0)
   13668:	0047f713          	andi	a4,a5,4
   1366c:	02070e63          	beqz	a4,136a8 <_ftello_r+0xa8>
   13670:	00442703          	lw	a4,4(s0)
   13674:	03042783          	lw	a5,48(s0)
   13678:	40e50533          	sub	a0,a0,a4
   1367c:	00078663          	beqz	a5,13688 <_ftello_r+0x88>
   13680:	03c42783          	lw	a5,60(s0)
   13684:	40f50533          	sub	a0,a0,a5
   13688:	00c12083          	lw	ra,12(sp)
   1368c:	00812403          	lw	s0,8(sp)
   13690:	00412483          	lw	s1,4(sp)
   13694:	01010113          	addi	sp,sp,16
   13698:	00008067          	ret
   1369c:	0047f713          	andi	a4,a5,4
   136a0:	05042503          	lw	a0,80(s0)
   136a4:	fc0716e3          	bnez	a4,13670 <_ftello_r+0x70>
   136a8:	0087f793          	andi	a5,a5,8
   136ac:	fc078ee3          	beqz	a5,13688 <_ftello_r+0x88>
   136b0:	00042783          	lw	a5,0(s0)
   136b4:	fc078ae3          	beqz	a5,13688 <_ftello_r+0x88>
   136b8:	01042703          	lw	a4,16(s0)
   136bc:	00c12083          	lw	ra,12(sp)
   136c0:	00812403          	lw	s0,8(sp)
   136c4:	40e787b3          	sub	a5,a5,a4
   136c8:	00412483          	lw	s1,4(sp)
   136cc:	00f50533          	add	a0,a0,a5
   136d0:	01010113          	addi	sp,sp,16
   136d4:	00008067          	ret
   136d8:	be8ff0ef          	jal	ra,12ac0 <__sinit>
   136dc:	f49ff06f          	j	13624 <_ftello_r+0x24>
   136e0:	00042703          	lw	a4,0(s0)
   136e4:	f4070ce3          	beqz	a4,1363c <_ftello_r+0x3c>
   136e8:	01042683          	lw	a3,16(s0)
   136ec:	40d70733          	sub	a4,a4,a3
   136f0:	f4e056e3          	blez	a4,1363c <_ftello_r+0x3c>
   136f4:	1007f713          	andi	a4,a5,256
   136f8:	f40702e3          	beqz	a4,1363c <_ftello_r+0x3c>
   136fc:	01c42583          	lw	a1,28(s0)
   13700:	00200693          	li	a3,2
   13704:	f4dff06f          	j	13650 <_ftello_r+0x50>
   13708:	01d00793          	li	a5,29
   1370c:	00f4a023          	sw	a5,0(s1)
   13710:	fff00513          	li	a0,-1
   13714:	f75ff06f          	j	13688 <_ftello_r+0x88>
   13718:	fff00513          	li	a0,-1
   1371c:	f6dff06f          	j	13688 <_ftello_r+0x88>

00013720 <ftello>:
   13720:	00050593          	mv	a1,a0
   13724:	9141a503          	lw	a0,-1772(gp) # 38efc <_impure_ptr>
   13728:	ed9ff06f          	j	13600 <_ftello_r>

0001372c <_fwalk>:
   1372c:	fe010113          	addi	sp,sp,-32
   13730:	01212823          	sw	s2,16(sp)
   13734:	01312623          	sw	s3,12(sp)
   13738:	01412423          	sw	s4,8(sp)
   1373c:	01512223          	sw	s5,4(sp)
   13740:	01612023          	sw	s6,0(sp)
   13744:	00112e23          	sw	ra,28(sp)
   13748:	00812c23          	sw	s0,24(sp)
   1374c:	00912a23          	sw	s1,20(sp)
   13750:	00058b13          	mv	s6,a1
   13754:	2e050a93          	addi	s5,a0,736
   13758:	00000a13          	li	s4,0
   1375c:	00100993          	li	s3,1
   13760:	fff00913          	li	s2,-1
   13764:	004aa483          	lw	s1,4(s5)
   13768:	008aa403          	lw	s0,8(s5)
   1376c:	fff48493          	addi	s1,s1,-1
   13770:	0204c663          	bltz	s1,1379c <_fwalk+0x70>
   13774:	00c45783          	lhu	a5,12(s0)
   13778:	fff48493          	addi	s1,s1,-1
   1377c:	00f9fc63          	bgeu	s3,a5,13794 <_fwalk+0x68>
   13780:	00e41783          	lh	a5,14(s0)
   13784:	00040513          	mv	a0,s0
   13788:	01278663          	beq	a5,s2,13794 <_fwalk+0x68>
   1378c:	000b00e7          	jalr	s6
   13790:	00aa6a33          	or	s4,s4,a0
   13794:	06840413          	addi	s0,s0,104
   13798:	fd249ee3          	bne	s1,s2,13774 <_fwalk+0x48>
   1379c:	000aaa83          	lw	s5,0(s5)
   137a0:	fc0a92e3          	bnez	s5,13764 <_fwalk+0x38>
   137a4:	01c12083          	lw	ra,28(sp)
   137a8:	01812403          	lw	s0,24(sp)
   137ac:	01412483          	lw	s1,20(sp)
   137b0:	01012903          	lw	s2,16(sp)
   137b4:	00c12983          	lw	s3,12(sp)
   137b8:	00412a83          	lw	s5,4(sp)
   137bc:	00012b03          	lw	s6,0(sp)
   137c0:	000a0513          	mv	a0,s4
   137c4:	00812a03          	lw	s4,8(sp)
   137c8:	02010113          	addi	sp,sp,32
   137cc:	00008067          	ret

000137d0 <_fwalk_reent>:
   137d0:	fd010113          	addi	sp,sp,-48
   137d4:	03212023          	sw	s2,32(sp)
   137d8:	01312e23          	sw	s3,28(sp)
   137dc:	01412c23          	sw	s4,24(sp)
   137e0:	01512a23          	sw	s5,20(sp)
   137e4:	01612823          	sw	s6,16(sp)
   137e8:	01712623          	sw	s7,12(sp)
   137ec:	02112623          	sw	ra,44(sp)
   137f0:	02812423          	sw	s0,40(sp)
   137f4:	02912223          	sw	s1,36(sp)
   137f8:	00050a93          	mv	s5,a0
   137fc:	00058b93          	mv	s7,a1
   13800:	2e050b13          	addi	s6,a0,736
   13804:	00000a13          	li	s4,0
   13808:	00100993          	li	s3,1
   1380c:	fff00913          	li	s2,-1
   13810:	004b2483          	lw	s1,4(s6)
   13814:	008b2403          	lw	s0,8(s6)
   13818:	fff48493          	addi	s1,s1,-1
   1381c:	0204c863          	bltz	s1,1384c <_fwalk_reent+0x7c>
   13820:	00c45783          	lhu	a5,12(s0)
   13824:	fff48493          	addi	s1,s1,-1
   13828:	00f9fe63          	bgeu	s3,a5,13844 <_fwalk_reent+0x74>
   1382c:	00e41783          	lh	a5,14(s0)
   13830:	00040593          	mv	a1,s0
   13834:	000a8513          	mv	a0,s5
   13838:	01278663          	beq	a5,s2,13844 <_fwalk_reent+0x74>
   1383c:	000b80e7          	jalr	s7
   13840:	00aa6a33          	or	s4,s4,a0
   13844:	06840413          	addi	s0,s0,104
   13848:	fd249ce3          	bne	s1,s2,13820 <_fwalk_reent+0x50>
   1384c:	000b2b03          	lw	s6,0(s6)
   13850:	fc0b10e3          	bnez	s6,13810 <_fwalk_reent+0x40>
   13854:	02c12083          	lw	ra,44(sp)
   13858:	02812403          	lw	s0,40(sp)
   1385c:	02412483          	lw	s1,36(sp)
   13860:	02012903          	lw	s2,32(sp)
   13864:	01c12983          	lw	s3,28(sp)
   13868:	01412a83          	lw	s5,20(sp)
   1386c:	01012b03          	lw	s6,16(sp)
   13870:	00c12b83          	lw	s7,12(sp)
   13874:	000a0513          	mv	a0,s4
   13878:	01812a03          	lw	s4,24(sp)
   1387c:	03010113          	addi	sp,sp,48
   13880:	00008067          	ret

00013884 <__libc_init_array>:
   13884:	ff010113          	addi	sp,sp,-16
   13888:	00812423          	sw	s0,8(sp)
   1388c:	01212023          	sw	s2,0(sp)
   13890:	00023417          	auipc	s0,0x23
   13894:	b7c40413          	addi	s0,s0,-1156 # 3640c <__init_array_start>
   13898:	00023917          	auipc	s2,0x23
   1389c:	b7490913          	addi	s2,s2,-1164 # 3640c <__init_array_start>
   138a0:	40890933          	sub	s2,s2,s0
   138a4:	00112623          	sw	ra,12(sp)
   138a8:	00912223          	sw	s1,4(sp)
   138ac:	40295913          	srai	s2,s2,0x2
   138b0:	00090e63          	beqz	s2,138cc <__libc_init_array+0x48>
   138b4:	00000493          	li	s1,0
   138b8:	00042783          	lw	a5,0(s0)
   138bc:	00148493          	addi	s1,s1,1
   138c0:	00440413          	addi	s0,s0,4
   138c4:	000780e7          	jalr	a5 # f000 <register_fini-0x1074>
   138c8:	fe9918e3          	bne	s2,s1,138b8 <__libc_init_array+0x34>
   138cc:	00023417          	auipc	s0,0x23
   138d0:	b4040413          	addi	s0,s0,-1216 # 3640c <__init_array_start>
   138d4:	00023917          	auipc	s2,0x23
   138d8:	b4090913          	addi	s2,s2,-1216 # 36414 <__do_global_dtors_aux_fini_array_entry>
   138dc:	40890933          	sub	s2,s2,s0
   138e0:	40295913          	srai	s2,s2,0x2
   138e4:	00090e63          	beqz	s2,13900 <__libc_init_array+0x7c>
   138e8:	00000493          	li	s1,0
   138ec:	00042783          	lw	a5,0(s0)
   138f0:	00148493          	addi	s1,s1,1
   138f4:	00440413          	addi	s0,s0,4
   138f8:	000780e7          	jalr	a5
   138fc:	fe9918e3          	bne	s2,s1,138ec <__libc_init_array+0x68>
   13900:	00c12083          	lw	ra,12(sp)
   13904:	00812403          	lw	s0,8(sp)
   13908:	00412483          	lw	s1,4(sp)
   1390c:	00012903          	lw	s2,0(sp)
   13910:	01010113          	addi	sp,sp,16
   13914:	00008067          	ret

00013918 <__smakebuf_r>:
   13918:	00c5d783          	lhu	a5,12(a1)
   1391c:	f8010113          	addi	sp,sp,-128
   13920:	06812c23          	sw	s0,120(sp)
   13924:	06112e23          	sw	ra,124(sp)
   13928:	06912a23          	sw	s1,116(sp)
   1392c:	07212823          	sw	s2,112(sp)
   13930:	07312623          	sw	s3,108(sp)
   13934:	07412423          	sw	s4,104(sp)
   13938:	0027f713          	andi	a4,a5,2
   1393c:	00058413          	mv	s0,a1
   13940:	02070c63          	beqz	a4,13978 <__smakebuf_r+0x60>
   13944:	04358793          	addi	a5,a1,67
   13948:	00f5a023          	sw	a5,0(a1)
   1394c:	00f5a823          	sw	a5,16(a1)
   13950:	00100793          	li	a5,1
   13954:	00f5aa23          	sw	a5,20(a1)
   13958:	07c12083          	lw	ra,124(sp)
   1395c:	07812403          	lw	s0,120(sp)
   13960:	07412483          	lw	s1,116(sp)
   13964:	07012903          	lw	s2,112(sp)
   13968:	06c12983          	lw	s3,108(sp)
   1396c:	06812a03          	lw	s4,104(sp)
   13970:	08010113          	addi	sp,sp,128
   13974:	00008067          	ret
   13978:	00e59583          	lh	a1,14(a1)
   1397c:	00050493          	mv	s1,a0
   13980:	0805cc63          	bltz	a1,13a18 <__smakebuf_r+0x100>
   13984:	00810613          	addi	a2,sp,8
   13988:	c21ff0ef          	jal	ra,135a8 <_fstat_r>
   1398c:	08054463          	bltz	a0,13a14 <__smakebuf_r+0xfc>
   13990:	00c12783          	lw	a5,12(sp)
   13994:	0000f937          	lui	s2,0xf
   13998:	40000993          	li	s3,1024
   1399c:	00f97933          	and	s2,s2,a5
   139a0:	ffffe7b7          	lui	a5,0xffffe
   139a4:	00f90933          	add	s2,s2,a5
   139a8:	000017b7          	lui	a5,0x1
   139ac:	00193913          	seqz	s2,s2
   139b0:	80078a13          	addi	s4,a5,-2048 # 800 <register_fini-0xf874>
   139b4:	00098593          	mv	a1,s3
   139b8:	00048513          	mv	a0,s1
   139bc:	1bc000ef          	jal	ra,13b78 <_malloc_r>
   139c0:	00c41783          	lh	a5,12(s0)
   139c4:	06050e63          	beqz	a0,13a40 <__smakebuf_r+0x128>
   139c8:	fffff717          	auipc	a4,0xfffff
   139cc:	da470713          	addi	a4,a4,-604 # 1276c <_cleanup_r>
   139d0:	02e4ae23          	sw	a4,60(s1)
   139d4:	0807e793          	ori	a5,a5,128
   139d8:	00f41623          	sh	a5,12(s0)
   139dc:	00a42023          	sw	a0,0(s0)
   139e0:	00a42823          	sw	a0,16(s0)
   139e4:	01342a23          	sw	s3,20(s0)
   139e8:	08091863          	bnez	s2,13a78 <__smakebuf_r+0x160>
   139ec:	0147e7b3          	or	a5,a5,s4
   139f0:	07c12083          	lw	ra,124(sp)
   139f4:	00f41623          	sh	a5,12(s0)
   139f8:	07812403          	lw	s0,120(sp)
   139fc:	07412483          	lw	s1,116(sp)
   13a00:	07012903          	lw	s2,112(sp)
   13a04:	06c12983          	lw	s3,108(sp)
   13a08:	06812a03          	lw	s4,104(sp)
   13a0c:	08010113          	addi	sp,sp,128
   13a10:	00008067          	ret
   13a14:	00c45783          	lhu	a5,12(s0)
   13a18:	0807f793          	andi	a5,a5,128
   13a1c:	00000913          	li	s2,0
   13a20:	04078663          	beqz	a5,13a6c <__smakebuf_r+0x154>
   13a24:	04000993          	li	s3,64
   13a28:	00098593          	mv	a1,s3
   13a2c:	00048513          	mv	a0,s1
   13a30:	148000ef          	jal	ra,13b78 <_malloc_r>
   13a34:	00c41783          	lh	a5,12(s0)
   13a38:	00000a13          	li	s4,0
   13a3c:	f80516e3          	bnez	a0,139c8 <__smakebuf_r+0xb0>
   13a40:	2007f713          	andi	a4,a5,512
   13a44:	f0071ae3          	bnez	a4,13958 <__smakebuf_r+0x40>
   13a48:	ffc7f793          	andi	a5,a5,-4
   13a4c:	0027e793          	ori	a5,a5,2
   13a50:	04340713          	addi	a4,s0,67
   13a54:	00f41623          	sh	a5,12(s0)
   13a58:	00100793          	li	a5,1
   13a5c:	00e42023          	sw	a4,0(s0)
   13a60:	00e42823          	sw	a4,16(s0)
   13a64:	00f42a23          	sw	a5,20(s0)
   13a68:	ef1ff06f          	j	13958 <__smakebuf_r+0x40>
   13a6c:	40000993          	li	s3,1024
   13a70:	00000a13          	li	s4,0
   13a74:	f41ff06f          	j	139b4 <__smakebuf_r+0x9c>
   13a78:	00e41583          	lh	a1,14(s0)
   13a7c:	00048513          	mv	a0,s1
   13a80:	2e9080ef          	jal	ra,1c568 <_isatty_r>
   13a84:	00051663          	bnez	a0,13a90 <__smakebuf_r+0x178>
   13a88:	00c41783          	lh	a5,12(s0)
   13a8c:	f61ff06f          	j	139ec <__smakebuf_r+0xd4>
   13a90:	00c45783          	lhu	a5,12(s0)
   13a94:	ffc7f793          	andi	a5,a5,-4
   13a98:	0017e793          	ori	a5,a5,1
   13a9c:	01079793          	slli	a5,a5,0x10
   13aa0:	4107d793          	srai	a5,a5,0x10
   13aa4:	f49ff06f          	j	139ec <__smakebuf_r+0xd4>

00013aa8 <__swhatbuf_r>:
   13aa8:	f9010113          	addi	sp,sp,-112
   13aac:	06812423          	sw	s0,104(sp)
   13ab0:	00058413          	mv	s0,a1
   13ab4:	00e59583          	lh	a1,14(a1)
   13ab8:	06912223          	sw	s1,100(sp)
   13abc:	07212023          	sw	s2,96(sp)
   13ac0:	06112623          	sw	ra,108(sp)
   13ac4:	00060493          	mv	s1,a2
   13ac8:	00068913          	mv	s2,a3
   13acc:	0405ca63          	bltz	a1,13b20 <__swhatbuf_r+0x78>
   13ad0:	00810613          	addi	a2,sp,8
   13ad4:	ad5ff0ef          	jal	ra,135a8 <_fstat_r>
   13ad8:	04054463          	bltz	a0,13b20 <__swhatbuf_r+0x78>
   13adc:	00c12703          	lw	a4,12(sp)
   13ae0:	0000f7b7          	lui	a5,0xf
   13ae4:	06c12083          	lw	ra,108(sp)
   13ae8:	00e7f7b3          	and	a5,a5,a4
   13aec:	ffffe737          	lui	a4,0xffffe
   13af0:	00e787b3          	add	a5,a5,a4
   13af4:	06812403          	lw	s0,104(sp)
   13af8:	0017b793          	seqz	a5,a5
   13afc:	00f92023          	sw	a5,0(s2) # f000 <register_fini-0x1074>
   13b00:	40000793          	li	a5,1024
   13b04:	00f4a023          	sw	a5,0(s1)
   13b08:	00001537          	lui	a0,0x1
   13b0c:	06412483          	lw	s1,100(sp)
   13b10:	06012903          	lw	s2,96(sp)
   13b14:	80050513          	addi	a0,a0,-2048 # 800 <register_fini-0xf874>
   13b18:	07010113          	addi	sp,sp,112
   13b1c:	00008067          	ret
   13b20:	00c41783          	lh	a5,12(s0)
   13b24:	00092023          	sw	zero,0(s2)
   13b28:	0807f793          	andi	a5,a5,128
   13b2c:	02078463          	beqz	a5,13b54 <__swhatbuf_r+0xac>
   13b30:	06c12083          	lw	ra,108(sp)
   13b34:	06812403          	lw	s0,104(sp)
   13b38:	04000793          	li	a5,64
   13b3c:	00f4a023          	sw	a5,0(s1)
   13b40:	06012903          	lw	s2,96(sp)
   13b44:	06412483          	lw	s1,100(sp)
   13b48:	00000513          	li	a0,0
   13b4c:	07010113          	addi	sp,sp,112
   13b50:	00008067          	ret
   13b54:	06c12083          	lw	ra,108(sp)
   13b58:	06812403          	lw	s0,104(sp)
   13b5c:	40000793          	li	a5,1024
   13b60:	00f4a023          	sw	a5,0(s1)
   13b64:	06012903          	lw	s2,96(sp)
   13b68:	06412483          	lw	s1,100(sp)
   13b6c:	00000513          	li	a0,0
   13b70:	07010113          	addi	sp,sp,112
   13b74:	00008067          	ret

00013b78 <_malloc_r>:
   13b78:	fd010113          	addi	sp,sp,-48
   13b7c:	03212023          	sw	s2,32(sp)
   13b80:	02112623          	sw	ra,44(sp)
   13b84:	02812423          	sw	s0,40(sp)
   13b88:	02912223          	sw	s1,36(sp)
   13b8c:	01312e23          	sw	s3,28(sp)
   13b90:	01412c23          	sw	s4,24(sp)
   13b94:	01512a23          	sw	s5,20(sp)
   13b98:	01612823          	sw	s6,16(sp)
   13b9c:	01712623          	sw	s7,12(sp)
   13ba0:	01812423          	sw	s8,8(sp)
   13ba4:	01912223          	sw	s9,4(sp)
   13ba8:	00b58793          	addi	a5,a1,11
   13bac:	01600713          	li	a4,22
   13bb0:	00050913          	mv	s2,a0
   13bb4:	06f76663          	bltu	a4,a5,13c20 <_malloc_r+0xa8>
   13bb8:	01000793          	li	a5,16
   13bbc:	1eb7e863          	bltu	a5,a1,13dac <_malloc_r+0x234>
   13bc0:	235000ef          	jal	ra,145f4 <__malloc_lock>
   13bc4:	01000493          	li	s1,16
   13bc8:	01800793          	li	a5,24
   13bcc:	00200613          	li	a2,2
   13bd0:	00025997          	auipc	s3,0x25
   13bd4:	c9098993          	addi	s3,s3,-880 # 38860 <__malloc_av_>
   13bd8:	00f987b3          	add	a5,s3,a5
   13bdc:	0047a403          	lw	s0,4(a5) # f004 <register_fini-0x1070>
   13be0:	ff878713          	addi	a4,a5,-8
   13be4:	20e40c63          	beq	s0,a4,13dfc <_malloc_r+0x284>
   13be8:	00442783          	lw	a5,4(s0)
   13bec:	00c42683          	lw	a3,12(s0)
   13bf0:	00842603          	lw	a2,8(s0)
   13bf4:	ffc7f793          	andi	a5,a5,-4
   13bf8:	00f407b3          	add	a5,s0,a5
   13bfc:	0047a703          	lw	a4,4(a5)
   13c00:	00d62623          	sw	a3,12(a2)
   13c04:	00c6a423          	sw	a2,8(a3)
   13c08:	00176713          	ori	a4,a4,1
   13c0c:	00090513          	mv	a0,s2
   13c10:	00e7a223          	sw	a4,4(a5)
   13c14:	1e5000ef          	jal	ra,145f8 <__malloc_unlock>
   13c18:	00840513          	addi	a0,s0,8
   13c1c:	19c0006f          	j	13db8 <_malloc_r+0x240>
   13c20:	ff87f493          	andi	s1,a5,-8
   13c24:	1807c463          	bltz	a5,13dac <_malloc_r+0x234>
   13c28:	18b4e263          	bltu	s1,a1,13dac <_malloc_r+0x234>
   13c2c:	1c9000ef          	jal	ra,145f4 <__malloc_lock>
   13c30:	1f700793          	li	a5,503
   13c34:	4697f863          	bgeu	a5,s1,140a4 <_malloc_r+0x52c>
   13c38:	0094d793          	srli	a5,s1,0x9
   13c3c:	1a078863          	beqz	a5,13dec <_malloc_r+0x274>
   13c40:	00400713          	li	a4,4
   13c44:	3cf76e63          	bltu	a4,a5,14020 <_malloc_r+0x4a8>
   13c48:	0064d793          	srli	a5,s1,0x6
   13c4c:	03978613          	addi	a2,a5,57
   13c50:	03878513          	addi	a0,a5,56
   13c54:	00361693          	slli	a3,a2,0x3
   13c58:	00025997          	auipc	s3,0x25
   13c5c:	c0898993          	addi	s3,s3,-1016 # 38860 <__malloc_av_>
   13c60:	00d986b3          	add	a3,s3,a3
   13c64:	0046a403          	lw	s0,4(a3)
   13c68:	ff868693          	addi	a3,a3,-8
   13c6c:	02868663          	beq	a3,s0,13c98 <_malloc_r+0x120>
   13c70:	00f00593          	li	a1,15
   13c74:	0100006f          	j	13c84 <_malloc_r+0x10c>
   13c78:	32075e63          	bgez	a4,13fb4 <_malloc_r+0x43c>
   13c7c:	00c42403          	lw	s0,12(s0)
   13c80:	00868c63          	beq	a3,s0,13c98 <_malloc_r+0x120>
   13c84:	00442783          	lw	a5,4(s0)
   13c88:	ffc7f793          	andi	a5,a5,-4
   13c8c:	40978733          	sub	a4,a5,s1
   13c90:	fee5d4e3          	bge	a1,a4,13c78 <_malloc_r+0x100>
   13c94:	00050613          	mv	a2,a0
   13c98:	0109a403          	lw	s0,16(s3)
   13c9c:	00025897          	auipc	a7,0x25
   13ca0:	bcc88893          	addi	a7,a7,-1076 # 38868 <__malloc_av_+0x8>
   13ca4:	17140a63          	beq	s0,a7,13e18 <_malloc_r+0x2a0>
   13ca8:	00442503          	lw	a0,4(s0)
   13cac:	00f00693          	li	a3,15
   13cb0:	ffc57513          	andi	a0,a0,-4
   13cb4:	409507b3          	sub	a5,a0,s1
   13cb8:	40f6cc63          	blt	a3,a5,140d0 <_malloc_r+0x558>
   13cbc:	0119aa23          	sw	a7,20(s3)
   13cc0:	0119a823          	sw	a7,16(s3)
   13cc4:	3e07d663          	bgez	a5,140b0 <_malloc_r+0x538>
   13cc8:	1ff00793          	li	a5,511
   13ccc:	2ea7ea63          	bltu	a5,a0,13fc0 <_malloc_r+0x448>
   13cd0:	ff857793          	andi	a5,a0,-8
   13cd4:	00878793          	addi	a5,a5,8
   13cd8:	0049a583          	lw	a1,4(s3)
   13cdc:	00f987b3          	add	a5,s3,a5
   13ce0:	0007a683          	lw	a3,0(a5)
   13ce4:	00555513          	srli	a0,a0,0x5
   13ce8:	00100713          	li	a4,1
   13cec:	00a71733          	sll	a4,a4,a0
   13cf0:	00b76733          	or	a4,a4,a1
   13cf4:	ff878593          	addi	a1,a5,-8
   13cf8:	00b42623          	sw	a1,12(s0)
   13cfc:	00d42423          	sw	a3,8(s0)
   13d00:	00e9a223          	sw	a4,4(s3)
   13d04:	0087a023          	sw	s0,0(a5)
   13d08:	0086a623          	sw	s0,12(a3)
   13d0c:	40265793          	srai	a5,a2,0x2
   13d10:	00100593          	li	a1,1
   13d14:	00f595b3          	sll	a1,a1,a5
   13d18:	10b76a63          	bltu	a4,a1,13e2c <_malloc_r+0x2b4>
   13d1c:	00e5f7b3          	and	a5,a1,a4
   13d20:	02079463          	bnez	a5,13d48 <_malloc_r+0x1d0>
   13d24:	00159593          	slli	a1,a1,0x1
   13d28:	ffc67613          	andi	a2,a2,-4
   13d2c:	00e5f7b3          	and	a5,a1,a4
   13d30:	00460613          	addi	a2,a2,4
   13d34:	00079a63          	bnez	a5,13d48 <_malloc_r+0x1d0>
   13d38:	00159593          	slli	a1,a1,0x1
   13d3c:	00e5f7b3          	and	a5,a1,a4
   13d40:	00460613          	addi	a2,a2,4
   13d44:	fe078ae3          	beqz	a5,13d38 <_malloc_r+0x1c0>
   13d48:	00f00813          	li	a6,15
   13d4c:	00361313          	slli	t1,a2,0x3
   13d50:	00698333          	add	t1,s3,t1
   13d54:	00030513          	mv	a0,t1
   13d58:	00c52783          	lw	a5,12(a0)
   13d5c:	00060e13          	mv	t3,a2
   13d60:	2ef50263          	beq	a0,a5,14044 <_malloc_r+0x4cc>
   13d64:	0047a703          	lw	a4,4(a5)
   13d68:	00078413          	mv	s0,a5
   13d6c:	00c7a783          	lw	a5,12(a5)
   13d70:	ffc77713          	andi	a4,a4,-4
   13d74:	409706b3          	sub	a3,a4,s1
   13d78:	2ed84263          	blt	a6,a3,1405c <_malloc_r+0x4e4>
   13d7c:	fe06c2e3          	bltz	a3,13d60 <_malloc_r+0x1e8>
   13d80:	00e40733          	add	a4,s0,a4
   13d84:	00472683          	lw	a3,4(a4) # ffffe004 <__BSS_END__+0xfffa3094>
   13d88:	00842603          	lw	a2,8(s0)
   13d8c:	00090513          	mv	a0,s2
   13d90:	0016e693          	ori	a3,a3,1
   13d94:	00d72223          	sw	a3,4(a4)
   13d98:	00f62623          	sw	a5,12(a2)
   13d9c:	00c7a423          	sw	a2,8(a5)
   13da0:	059000ef          	jal	ra,145f8 <__malloc_unlock>
   13da4:	00840513          	addi	a0,s0,8
   13da8:	0100006f          	j	13db8 <_malloc_r+0x240>
   13dac:	00c00793          	li	a5,12
   13db0:	00f92023          	sw	a5,0(s2)
   13db4:	00000513          	li	a0,0
   13db8:	02c12083          	lw	ra,44(sp)
   13dbc:	02812403          	lw	s0,40(sp)
   13dc0:	02412483          	lw	s1,36(sp)
   13dc4:	02012903          	lw	s2,32(sp)
   13dc8:	01c12983          	lw	s3,28(sp)
   13dcc:	01812a03          	lw	s4,24(sp)
   13dd0:	01412a83          	lw	s5,20(sp)
   13dd4:	01012b03          	lw	s6,16(sp)
   13dd8:	00c12b83          	lw	s7,12(sp)
   13ddc:	00812c03          	lw	s8,8(sp)
   13de0:	00412c83          	lw	s9,4(sp)
   13de4:	03010113          	addi	sp,sp,48
   13de8:	00008067          	ret
   13dec:	20000693          	li	a3,512
   13df0:	04000613          	li	a2,64
   13df4:	03f00513          	li	a0,63
   13df8:	e61ff06f          	j	13c58 <_malloc_r+0xe0>
   13dfc:	00c7a403          	lw	s0,12(a5)
   13e00:	00260613          	addi	a2,a2,2
   13e04:	de8792e3          	bne	a5,s0,13be8 <_malloc_r+0x70>
   13e08:	0109a403          	lw	s0,16(s3)
   13e0c:	00025897          	auipc	a7,0x25
   13e10:	a5c88893          	addi	a7,a7,-1444 # 38868 <__malloc_av_+0x8>
   13e14:	e9141ae3          	bne	s0,a7,13ca8 <_malloc_r+0x130>
   13e18:	0049a703          	lw	a4,4(s3)
   13e1c:	40265793          	srai	a5,a2,0x2
   13e20:	00100593          	li	a1,1
   13e24:	00f595b3          	sll	a1,a1,a5
   13e28:	eeb77ae3          	bgeu	a4,a1,13d1c <_malloc_r+0x1a4>
   13e2c:	0089a403          	lw	s0,8(s3)
   13e30:	00442a83          	lw	s5,4(s0)
   13e34:	ffcafb13          	andi	s6,s5,-4
   13e38:	009b6863          	bltu	s6,s1,13e48 <_malloc_r+0x2d0>
   13e3c:	409b07b3          	sub	a5,s6,s1
   13e40:	00f00713          	li	a4,15
   13e44:	14f74463          	blt	a4,a5,13f8c <_malloc_r+0x414>
   13e48:	91818c93          	addi	s9,gp,-1768 # 38f00 <__malloc_sbrk_base>
   13e4c:	000ca703          	lw	a4,0(s9)
   13e50:	9341aa83          	lw	s5,-1740(gp) # 38f1c <__malloc_top_pad>
   13e54:	fff00793          	li	a5,-1
   13e58:	01640a33          	add	s4,s0,s6
   13e5c:	01548ab3          	add	s5,s1,s5
   13e60:	34f70a63          	beq	a4,a5,141b4 <_malloc_r+0x63c>
   13e64:	000017b7          	lui	a5,0x1
   13e68:	00f78793          	addi	a5,a5,15 # 100f <register_fini-0xf065>
   13e6c:	00fa8ab3          	add	s5,s5,a5
   13e70:	fffff7b7          	lui	a5,0xfffff
   13e74:	00fafab3          	and	s5,s5,a5
   13e78:	000a8593          	mv	a1,s5
   13e7c:	00090513          	mv	a0,s2
   13e80:	511000ef          	jal	ra,14b90 <_sbrk_r>
   13e84:	fff00793          	li	a5,-1
   13e88:	00050b93          	mv	s7,a0
   13e8c:	28f50c63          	beq	a0,a5,14124 <_malloc_r+0x5ac>
   13e90:	29456863          	bltu	a0,s4,14120 <_malloc_r+0x5a8>
   13e94:	00047c17          	auipc	s8,0x47
   13e98:	0b4c0c13          	addi	s8,s8,180 # 5af48 <__malloc_current_mallinfo>
   13e9c:	000c2583          	lw	a1,0(s8)
   13ea0:	00ba85b3          	add	a1,s5,a1
   13ea4:	00bc2023          	sw	a1,0(s8)
   13ea8:	00058793          	mv	a5,a1
   13eac:	3aaa0463          	beq	s4,a0,14254 <_malloc_r+0x6dc>
   13eb0:	000ca683          	lw	a3,0(s9)
   13eb4:	fff00713          	li	a4,-1
   13eb8:	3ae68c63          	beq	a3,a4,14270 <_malloc_r+0x6f8>
   13ebc:	414b8a33          	sub	s4,s7,s4
   13ec0:	00fa07b3          	add	a5,s4,a5
   13ec4:	00fc2023          	sw	a5,0(s8)
   13ec8:	007bfc93          	andi	s9,s7,7
   13ecc:	300c8663          	beqz	s9,141d8 <_malloc_r+0x660>
   13ed0:	000017b7          	lui	a5,0x1
   13ed4:	419b8bb3          	sub	s7,s7,s9
   13ed8:	00878593          	addi	a1,a5,8 # 1008 <register_fini-0xf06c>
   13edc:	008b8b93          	addi	s7,s7,8
   13ee0:	419585b3          	sub	a1,a1,s9
   13ee4:	015b8ab3          	add	s5,s7,s5
   13ee8:	fff78793          	addi	a5,a5,-1
   13eec:	415585b3          	sub	a1,a1,s5
   13ef0:	00f5fa33          	and	s4,a1,a5
   13ef4:	000a0593          	mv	a1,s4
   13ef8:	00090513          	mv	a0,s2
   13efc:	495000ef          	jal	ra,14b90 <_sbrk_r>
   13f00:	fff00793          	li	a5,-1
   13f04:	3cf50063          	beq	a0,a5,142c4 <_malloc_r+0x74c>
   13f08:	41750533          	sub	a0,a0,s7
   13f0c:	01450ab3          	add	s5,a0,s4
   13f10:	000c2583          	lw	a1,0(s8)
   13f14:	0179a423          	sw	s7,8(s3)
   13f18:	001aea93          	ori	s5,s5,1
   13f1c:	00ba05b3          	add	a1,s4,a1
   13f20:	00bc2023          	sw	a1,0(s8)
   13f24:	015ba223          	sw	s5,4(s7)
   13f28:	35340863          	beq	s0,s3,14278 <_malloc_r+0x700>
   13f2c:	00f00693          	li	a3,15
   13f30:	3566f863          	bgeu	a3,s6,14280 <_malloc_r+0x708>
   13f34:	00442703          	lw	a4,4(s0)
   13f38:	ff4b0793          	addi	a5,s6,-12
   13f3c:	ff87f793          	andi	a5,a5,-8
   13f40:	00177713          	andi	a4,a4,1
   13f44:	00f76733          	or	a4,a4,a5
   13f48:	00e42223          	sw	a4,4(s0)
   13f4c:	00500613          	li	a2,5
   13f50:	00f40733          	add	a4,s0,a5
   13f54:	00c72223          	sw	a2,4(a4)
   13f58:	00c72423          	sw	a2,8(a4)
   13f5c:	36f6ee63          	bltu	a3,a5,142d8 <_malloc_r+0x760>
   13f60:	004baa83          	lw	s5,4(s7)
   13f64:	000b8413          	mv	s0,s7
   13f68:	93018793          	addi	a5,gp,-1744 # 38f18 <__malloc_max_sbrked_mem>
   13f6c:	0007a703          	lw	a4,0(a5)
   13f70:	00b77463          	bgeu	a4,a1,13f78 <_malloc_r+0x400>
   13f74:	00b7a023          	sw	a1,0(a5)
   13f78:	92c18793          	addi	a5,gp,-1748 # 38f14 <__malloc_max_total_mem>
   13f7c:	0007a703          	lw	a4,0(a5)
   13f80:	1ab77663          	bgeu	a4,a1,1412c <_malloc_r+0x5b4>
   13f84:	00b7a023          	sw	a1,0(a5)
   13f88:	1a40006f          	j	1412c <_malloc_r+0x5b4>
   13f8c:	0014e713          	ori	a4,s1,1
   13f90:	00e42223          	sw	a4,4(s0)
   13f94:	009404b3          	add	s1,s0,s1
   13f98:	0099a423          	sw	s1,8(s3)
   13f9c:	0017e793          	ori	a5,a5,1
   13fa0:	00090513          	mv	a0,s2
   13fa4:	00f4a223          	sw	a5,4(s1)
   13fa8:	650000ef          	jal	ra,145f8 <__malloc_unlock>
   13fac:	00840513          	addi	a0,s0,8
   13fb0:	e09ff06f          	j	13db8 <_malloc_r+0x240>
   13fb4:	00c42683          	lw	a3,12(s0)
   13fb8:	00842603          	lw	a2,8(s0)
   13fbc:	c3dff06f          	j	13bf8 <_malloc_r+0x80>
   13fc0:	00955793          	srli	a5,a0,0x9
   13fc4:	00400713          	li	a4,4
   13fc8:	14f77263          	bgeu	a4,a5,1410c <_malloc_r+0x594>
   13fcc:	01400713          	li	a4,20
   13fd0:	22f76a63          	bltu	a4,a5,14204 <_malloc_r+0x68c>
   13fd4:	05c78693          	addi	a3,a5,92
   13fd8:	05b78593          	addi	a1,a5,91
   13fdc:	00369693          	slli	a3,a3,0x3
   13fe0:	00d986b3          	add	a3,s3,a3
   13fe4:	0006a783          	lw	a5,0(a3)
   13fe8:	ff868693          	addi	a3,a3,-8
   13fec:	1cf68863          	beq	a3,a5,141bc <_malloc_r+0x644>
   13ff0:	0047a703          	lw	a4,4(a5)
   13ff4:	ffc77713          	andi	a4,a4,-4
   13ff8:	00e57663          	bgeu	a0,a4,14004 <_malloc_r+0x48c>
   13ffc:	0087a783          	lw	a5,8(a5)
   14000:	fef698e3          	bne	a3,a5,13ff0 <_malloc_r+0x478>
   14004:	00c7a683          	lw	a3,12(a5)
   14008:	0049a703          	lw	a4,4(s3)
   1400c:	00d42623          	sw	a3,12(s0)
   14010:	00f42423          	sw	a5,8(s0)
   14014:	0086a423          	sw	s0,8(a3)
   14018:	0087a623          	sw	s0,12(a5)
   1401c:	cf1ff06f          	j	13d0c <_malloc_r+0x194>
   14020:	01400713          	li	a4,20
   14024:	12f77663          	bgeu	a4,a5,14150 <_malloc_r+0x5d8>
   14028:	05400713          	li	a4,84
   1402c:	1ef76a63          	bltu	a4,a5,14220 <_malloc_r+0x6a8>
   14030:	00c4d793          	srli	a5,s1,0xc
   14034:	06f78613          	addi	a2,a5,111
   14038:	06e78513          	addi	a0,a5,110
   1403c:	00361693          	slli	a3,a2,0x3
   14040:	c19ff06f          	j	13c58 <_malloc_r+0xe0>
   14044:	001e0e13          	addi	t3,t3,1
   14048:	003e7793          	andi	a5,t3,3
   1404c:	00850513          	addi	a0,a0,8
   14050:	10078e63          	beqz	a5,1416c <_malloc_r+0x5f4>
   14054:	00c52783          	lw	a5,12(a0)
   14058:	d09ff06f          	j	13d60 <_malloc_r+0x1e8>
   1405c:	00842603          	lw	a2,8(s0)
   14060:	0014e593          	ori	a1,s1,1
   14064:	00b42223          	sw	a1,4(s0)
   14068:	00f62623          	sw	a5,12(a2)
   1406c:	00c7a423          	sw	a2,8(a5)
   14070:	009404b3          	add	s1,s0,s1
   14074:	0099aa23          	sw	s1,20(s3)
   14078:	0099a823          	sw	s1,16(s3)
   1407c:	0016e793          	ori	a5,a3,1
   14080:	0114a623          	sw	a7,12(s1)
   14084:	0114a423          	sw	a7,8(s1)
   14088:	00f4a223          	sw	a5,4(s1)
   1408c:	00e40733          	add	a4,s0,a4
   14090:	00090513          	mv	a0,s2
   14094:	00d72023          	sw	a3,0(a4)
   14098:	560000ef          	jal	ra,145f8 <__malloc_unlock>
   1409c:	00840513          	addi	a0,s0,8
   140a0:	d19ff06f          	j	13db8 <_malloc_r+0x240>
   140a4:	0034d613          	srli	a2,s1,0x3
   140a8:	00848793          	addi	a5,s1,8
   140ac:	b25ff06f          	j	13bd0 <_malloc_r+0x58>
   140b0:	00a40733          	add	a4,s0,a0
   140b4:	00472783          	lw	a5,4(a4)
   140b8:	00090513          	mv	a0,s2
   140bc:	0017e793          	ori	a5,a5,1
   140c0:	00f72223          	sw	a5,4(a4)
   140c4:	534000ef          	jal	ra,145f8 <__malloc_unlock>
   140c8:	00840513          	addi	a0,s0,8
   140cc:	cedff06f          	j	13db8 <_malloc_r+0x240>
   140d0:	0014e713          	ori	a4,s1,1
   140d4:	00e42223          	sw	a4,4(s0)
   140d8:	009404b3          	add	s1,s0,s1
   140dc:	0099aa23          	sw	s1,20(s3)
   140e0:	0099a823          	sw	s1,16(s3)
   140e4:	0017e713          	ori	a4,a5,1
   140e8:	0114a623          	sw	a7,12(s1)
   140ec:	0114a423          	sw	a7,8(s1)
   140f0:	00e4a223          	sw	a4,4(s1)
   140f4:	00a40533          	add	a0,s0,a0
   140f8:	00f52023          	sw	a5,0(a0)
   140fc:	00090513          	mv	a0,s2
   14100:	4f8000ef          	jal	ra,145f8 <__malloc_unlock>
   14104:	00840513          	addi	a0,s0,8
   14108:	cb1ff06f          	j	13db8 <_malloc_r+0x240>
   1410c:	00655793          	srli	a5,a0,0x6
   14110:	03978693          	addi	a3,a5,57
   14114:	03878593          	addi	a1,a5,56
   14118:	00369693          	slli	a3,a3,0x3
   1411c:	ec5ff06f          	j	13fe0 <_malloc_r+0x468>
   14120:	11340e63          	beq	s0,s3,1423c <_malloc_r+0x6c4>
   14124:	0089a403          	lw	s0,8(s3)
   14128:	00442a83          	lw	s5,4(s0)
   1412c:	ffcafa93          	andi	s5,s5,-4
   14130:	409a87b3          	sub	a5,s5,s1
   14134:	009ae663          	bltu	s5,s1,14140 <_malloc_r+0x5c8>
   14138:	00f00713          	li	a4,15
   1413c:	e4f748e3          	blt	a4,a5,13f8c <_malloc_r+0x414>
   14140:	00090513          	mv	a0,s2
   14144:	4b4000ef          	jal	ra,145f8 <__malloc_unlock>
   14148:	00000513          	li	a0,0
   1414c:	c6dff06f          	j	13db8 <_malloc_r+0x240>
   14150:	05c78613          	addi	a2,a5,92
   14154:	05b78513          	addi	a0,a5,91
   14158:	00361693          	slli	a3,a2,0x3
   1415c:	afdff06f          	j	13c58 <_malloc_r+0xe0>
   14160:	00832783          	lw	a5,8(t1)
   14164:	fff60613          	addi	a2,a2,-1
   14168:	1c679263          	bne	a5,t1,1432c <_malloc_r+0x7b4>
   1416c:	00367793          	andi	a5,a2,3
   14170:	ff830313          	addi	t1,t1,-8
   14174:	fe0796e3          	bnez	a5,14160 <_malloc_r+0x5e8>
   14178:	0049a703          	lw	a4,4(s3)
   1417c:	fff5c793          	not	a5,a1
   14180:	00e7f7b3          	and	a5,a5,a4
   14184:	00f9a223          	sw	a5,4(s3)
   14188:	00159593          	slli	a1,a1,0x1
   1418c:	cab7e0e3          	bltu	a5,a1,13e2c <_malloc_r+0x2b4>
   14190:	c8058ee3          	beqz	a1,13e2c <_malloc_r+0x2b4>
   14194:	00f5f733          	and	a4,a1,a5
   14198:	00071a63          	bnez	a4,141ac <_malloc_r+0x634>
   1419c:	00159593          	slli	a1,a1,0x1
   141a0:	00f5f733          	and	a4,a1,a5
   141a4:	004e0e13          	addi	t3,t3,4
   141a8:	fe070ae3          	beqz	a4,1419c <_malloc_r+0x624>
   141ac:	000e0613          	mv	a2,t3
   141b0:	b9dff06f          	j	13d4c <_malloc_r+0x1d4>
   141b4:	010a8a93          	addi	s5,s5,16
   141b8:	cc1ff06f          	j	13e78 <_malloc_r+0x300>
   141bc:	0049a503          	lw	a0,4(s3)
   141c0:	4025d593          	srai	a1,a1,0x2
   141c4:	00100713          	li	a4,1
   141c8:	00b71733          	sll	a4,a4,a1
   141cc:	00a76733          	or	a4,a4,a0
   141d0:	00e9a223          	sw	a4,4(s3)
   141d4:	e39ff06f          	j	1400c <_malloc_r+0x494>
   141d8:	015b85b3          	add	a1,s7,s5
   141dc:	40b005b3          	neg	a1,a1
   141e0:	01459593          	slli	a1,a1,0x14
   141e4:	0145da13          	srli	s4,a1,0x14
   141e8:	000a0593          	mv	a1,s4
   141ec:	00090513          	mv	a0,s2
   141f0:	1a1000ef          	jal	ra,14b90 <_sbrk_r>
   141f4:	fff00793          	li	a5,-1
   141f8:	d0f518e3          	bne	a0,a5,13f08 <_malloc_r+0x390>
   141fc:	00000a13          	li	s4,0
   14200:	d11ff06f          	j	13f10 <_malloc_r+0x398>
   14204:	05400713          	li	a4,84
   14208:	08f76263          	bltu	a4,a5,1428c <_malloc_r+0x714>
   1420c:	00c55793          	srli	a5,a0,0xc
   14210:	06f78693          	addi	a3,a5,111
   14214:	06e78593          	addi	a1,a5,110
   14218:	00369693          	slli	a3,a3,0x3
   1421c:	dc5ff06f          	j	13fe0 <_malloc_r+0x468>
   14220:	15400713          	li	a4,340
   14224:	08f76263          	bltu	a4,a5,142a8 <_malloc_r+0x730>
   14228:	00f4d793          	srli	a5,s1,0xf
   1422c:	07878613          	addi	a2,a5,120
   14230:	07778513          	addi	a0,a5,119
   14234:	00361693          	slli	a3,a2,0x3
   14238:	a21ff06f          	j	13c58 <_malloc_r+0xe0>
   1423c:	00047c17          	auipc	s8,0x47
   14240:	d0cc0c13          	addi	s8,s8,-756 # 5af48 <__malloc_current_mallinfo>
   14244:	000c2783          	lw	a5,0(s8)
   14248:	00fa87b3          	add	a5,s5,a5
   1424c:	00fc2023          	sw	a5,0(s8)
   14250:	c61ff06f          	j	13eb0 <_malloc_r+0x338>
   14254:	014a1713          	slli	a4,s4,0x14
   14258:	c4071ce3          	bnez	a4,13eb0 <_malloc_r+0x338>
   1425c:	0089a403          	lw	s0,8(s3)
   14260:	015b0ab3          	add	s5,s6,s5
   14264:	001aea93          	ori	s5,s5,1
   14268:	01542223          	sw	s5,4(s0)
   1426c:	cfdff06f          	j	13f68 <_malloc_r+0x3f0>
   14270:	017ca023          	sw	s7,0(s9)
   14274:	c55ff06f          	j	13ec8 <_malloc_r+0x350>
   14278:	000b8413          	mv	s0,s7
   1427c:	cedff06f          	j	13f68 <_malloc_r+0x3f0>
   14280:	00100793          	li	a5,1
   14284:	00fba223          	sw	a5,4(s7)
   14288:	eb9ff06f          	j	14140 <_malloc_r+0x5c8>
   1428c:	15400713          	li	a4,340
   14290:	06f76263          	bltu	a4,a5,142f4 <_malloc_r+0x77c>
   14294:	00f55793          	srli	a5,a0,0xf
   14298:	07878693          	addi	a3,a5,120
   1429c:	07778593          	addi	a1,a5,119
   142a0:	00369693          	slli	a3,a3,0x3
   142a4:	d3dff06f          	j	13fe0 <_malloc_r+0x468>
   142a8:	55400713          	li	a4,1364
   142ac:	06f76263          	bltu	a4,a5,14310 <_malloc_r+0x798>
   142b0:	0124d793          	srli	a5,s1,0x12
   142b4:	07d78613          	addi	a2,a5,125
   142b8:	07c78513          	addi	a0,a5,124
   142bc:	00361693          	slli	a3,a2,0x3
   142c0:	999ff06f          	j	13c58 <_malloc_r+0xe0>
   142c4:	ff8c8c93          	addi	s9,s9,-8
   142c8:	019a8ab3          	add	s5,s5,s9
   142cc:	417a8ab3          	sub	s5,s5,s7
   142d0:	00000a13          	li	s4,0
   142d4:	c3dff06f          	j	13f10 <_malloc_r+0x398>
   142d8:	00840593          	addi	a1,s0,8
   142dc:	00090513          	mv	a0,s2
   142e0:	b95fe0ef          	jal	ra,12e74 <_free_r>
   142e4:	0089a403          	lw	s0,8(s3)
   142e8:	000c2583          	lw	a1,0(s8)
   142ec:	00442a83          	lw	s5,4(s0)
   142f0:	c79ff06f          	j	13f68 <_malloc_r+0x3f0>
   142f4:	55400713          	li	a4,1364
   142f8:	02f76463          	bltu	a4,a5,14320 <_malloc_r+0x7a8>
   142fc:	01255793          	srli	a5,a0,0x12
   14300:	07d78693          	addi	a3,a5,125
   14304:	07c78593          	addi	a1,a5,124
   14308:	00369693          	slli	a3,a3,0x3
   1430c:	cd5ff06f          	j	13fe0 <_malloc_r+0x468>
   14310:	3f800693          	li	a3,1016
   14314:	07f00613          	li	a2,127
   14318:	07e00513          	li	a0,126
   1431c:	93dff06f          	j	13c58 <_malloc_r+0xe0>
   14320:	3f800693          	li	a3,1016
   14324:	07e00593          	li	a1,126
   14328:	cb9ff06f          	j	13fe0 <_malloc_r+0x468>
   1432c:	0049a783          	lw	a5,4(s3)
   14330:	e59ff06f          	j	14188 <_malloc_r+0x610>

00014334 <memchr>:
   14334:	00357793          	andi	a5,a0,3
   14338:	0ff5f693          	andi	a3,a1,255
   1433c:	02078a63          	beqz	a5,14370 <memchr+0x3c>
   14340:	fff60793          	addi	a5,a2,-1
   14344:	02060e63          	beqz	a2,14380 <memchr+0x4c>
   14348:	fff00613          	li	a2,-1
   1434c:	0180006f          	j	14364 <memchr+0x30>
   14350:	00150513          	addi	a0,a0,1
   14354:	00357713          	andi	a4,a0,3
   14358:	00070e63          	beqz	a4,14374 <memchr+0x40>
   1435c:	fff78793          	addi	a5,a5,-1
   14360:	02c78063          	beq	a5,a2,14380 <memchr+0x4c>
   14364:	00054703          	lbu	a4,0(a0)
   14368:	fed714e3          	bne	a4,a3,14350 <memchr+0x1c>
   1436c:	00008067          	ret
   14370:	00060793          	mv	a5,a2
   14374:	00300713          	li	a4,3
   14378:	02f76663          	bltu	a4,a5,143a4 <memchr+0x70>
   1437c:	00079663          	bnez	a5,14388 <memchr+0x54>
   14380:	00000513          	li	a0,0
   14384:	00008067          	ret
   14388:	00f507b3          	add	a5,a0,a5
   1438c:	00c0006f          	j	14398 <memchr+0x64>
   14390:	00150513          	addi	a0,a0,1
   14394:	fea786e3          	beq	a5,a0,14380 <memchr+0x4c>
   14398:	00054703          	lbu	a4,0(a0)
   1439c:	fed71ae3          	bne	a4,a3,14390 <memchr+0x5c>
   143a0:	00008067          	ret
   143a4:	0ff5f593          	andi	a1,a1,255
   143a8:	00859893          	slli	a7,a1,0x8
   143ac:	00b8e5b3          	or	a1,a7,a1
   143b0:	01059893          	slli	a7,a1,0x10
   143b4:	00b8e8b3          	or	a7,a7,a1
   143b8:	feff0837          	lui	a6,0xfeff0
   143bc:	808085b7          	lui	a1,0x80808
   143c0:	eff80813          	addi	a6,a6,-257 # fefefeff <__BSS_END__+0xfef94f8f>
   143c4:	08058593          	addi	a1,a1,128 # 80808080 <__BSS_END__+0x807ad110>
   143c8:	00300313          	li	t1,3
   143cc:	00052703          	lw	a4,0(a0)
   143d0:	00e8c733          	xor	a4,a7,a4
   143d4:	01070633          	add	a2,a4,a6
   143d8:	fff74713          	not	a4,a4
   143dc:	00e67733          	and	a4,a2,a4
   143e0:	00b77733          	and	a4,a4,a1
   143e4:	fa0712e3          	bnez	a4,14388 <memchr+0x54>
   143e8:	ffc78793          	addi	a5,a5,-4
   143ec:	00450513          	addi	a0,a0,4
   143f0:	fcf36ee3          	bltu	t1,a5,143cc <memchr+0x98>
   143f4:	f8079ae3          	bnez	a5,14388 <memchr+0x54>
   143f8:	f89ff06f          	j	14380 <memchr+0x4c>

000143fc <memcpy>:
   143fc:	00a5c7b3          	xor	a5,a1,a0
   14400:	0037f793          	andi	a5,a5,3
   14404:	00c508b3          	add	a7,a0,a2
   14408:	06079263          	bnez	a5,1446c <memcpy+0x70>
   1440c:	00300793          	li	a5,3
   14410:	04c7fe63          	bgeu	a5,a2,1446c <memcpy+0x70>
   14414:	00357793          	andi	a5,a0,3
   14418:	00050713          	mv	a4,a0
   1441c:	06079863          	bnez	a5,1448c <memcpy+0x90>
   14420:	ffc8f613          	andi	a2,a7,-4
   14424:	fe060793          	addi	a5,a2,-32
   14428:	08f76c63          	bltu	a4,a5,144c0 <memcpy+0xc4>
   1442c:	02c77c63          	bgeu	a4,a2,14464 <memcpy+0x68>
   14430:	00058693          	mv	a3,a1
   14434:	00070793          	mv	a5,a4
   14438:	0006a803          	lw	a6,0(a3)
   1443c:	00478793          	addi	a5,a5,4
   14440:	00468693          	addi	a3,a3,4
   14444:	ff07ae23          	sw	a6,-4(a5)
   14448:	fec7e8e3          	bltu	a5,a2,14438 <memcpy+0x3c>
   1444c:	fff60793          	addi	a5,a2,-1
   14450:	40e787b3          	sub	a5,a5,a4
   14454:	ffc7f793          	andi	a5,a5,-4
   14458:	00478793          	addi	a5,a5,4
   1445c:	00f70733          	add	a4,a4,a5
   14460:	00f585b3          	add	a1,a1,a5
   14464:	01176863          	bltu	a4,a7,14474 <memcpy+0x78>
   14468:	00008067          	ret
   1446c:	00050713          	mv	a4,a0
   14470:	ff157ce3          	bgeu	a0,a7,14468 <memcpy+0x6c>
   14474:	0005c783          	lbu	a5,0(a1)
   14478:	00170713          	addi	a4,a4,1
   1447c:	00158593          	addi	a1,a1,1
   14480:	fef70fa3          	sb	a5,-1(a4)
   14484:	ff1768e3          	bltu	a4,a7,14474 <memcpy+0x78>
   14488:	00008067          	ret
   1448c:	0005c683          	lbu	a3,0(a1)
   14490:	00170713          	addi	a4,a4,1
   14494:	00377793          	andi	a5,a4,3
   14498:	fed70fa3          	sb	a3,-1(a4)
   1449c:	00158593          	addi	a1,a1,1
   144a0:	f80780e3          	beqz	a5,14420 <memcpy+0x24>
   144a4:	0005c683          	lbu	a3,0(a1)
   144a8:	00170713          	addi	a4,a4,1
   144ac:	00377793          	andi	a5,a4,3
   144b0:	fed70fa3          	sb	a3,-1(a4)
   144b4:	00158593          	addi	a1,a1,1
   144b8:	fc079ae3          	bnez	a5,1448c <memcpy+0x90>
   144bc:	f65ff06f          	j	14420 <memcpy+0x24>
   144c0:	0045a683          	lw	a3,4(a1)
   144c4:	0005a283          	lw	t0,0(a1)
   144c8:	0085af83          	lw	t6,8(a1)
   144cc:	00c5af03          	lw	t5,12(a1)
   144d0:	0105ae83          	lw	t4,16(a1)
   144d4:	0145ae03          	lw	t3,20(a1)
   144d8:	0185a303          	lw	t1,24(a1)
   144dc:	01c5a803          	lw	a6,28(a1)
   144e0:	00d72223          	sw	a3,4(a4)
   144e4:	0205a683          	lw	a3,32(a1)
   144e8:	00572023          	sw	t0,0(a4)
   144ec:	01f72423          	sw	t6,8(a4)
   144f0:	01e72623          	sw	t5,12(a4)
   144f4:	01d72823          	sw	t4,16(a4)
   144f8:	01c72a23          	sw	t3,20(a4)
   144fc:	00672c23          	sw	t1,24(a4)
   14500:	01072e23          	sw	a6,28(a4)
   14504:	02d72023          	sw	a3,32(a4)
   14508:	02470713          	addi	a4,a4,36
   1450c:	02458593          	addi	a1,a1,36
   14510:	faf768e3          	bltu	a4,a5,144c0 <memcpy+0xc4>
   14514:	f19ff06f          	j	1442c <memcpy+0x30>

00014518 <memset>:
   14518:	00f00313          	li	t1,15
   1451c:	00050713          	mv	a4,a0
   14520:	02c37e63          	bgeu	t1,a2,1455c <memset+0x44>
   14524:	00f77793          	andi	a5,a4,15
   14528:	0a079063          	bnez	a5,145c8 <memset+0xb0>
   1452c:	08059263          	bnez	a1,145b0 <memset+0x98>
   14530:	ff067693          	andi	a3,a2,-16
   14534:	00f67613          	andi	a2,a2,15
   14538:	00e686b3          	add	a3,a3,a4
   1453c:	00b72023          	sw	a1,0(a4)
   14540:	00b72223          	sw	a1,4(a4)
   14544:	00b72423          	sw	a1,8(a4)
   14548:	00b72623          	sw	a1,12(a4)
   1454c:	01070713          	addi	a4,a4,16
   14550:	fed766e3          	bltu	a4,a3,1453c <memset+0x24>
   14554:	00061463          	bnez	a2,1455c <memset+0x44>
   14558:	00008067          	ret
   1455c:	40c306b3          	sub	a3,t1,a2
   14560:	00269693          	slli	a3,a3,0x2
   14564:	00000297          	auipc	t0,0x0
   14568:	005686b3          	add	a3,a3,t0
   1456c:	00c68067          	jr	12(a3)
   14570:	00b70723          	sb	a1,14(a4)
   14574:	00b706a3          	sb	a1,13(a4)
   14578:	00b70623          	sb	a1,12(a4)
   1457c:	00b705a3          	sb	a1,11(a4)
   14580:	00b70523          	sb	a1,10(a4)
   14584:	00b704a3          	sb	a1,9(a4)
   14588:	00b70423          	sb	a1,8(a4)
   1458c:	00b703a3          	sb	a1,7(a4)
   14590:	00b70323          	sb	a1,6(a4)
   14594:	00b702a3          	sb	a1,5(a4)
   14598:	00b70223          	sb	a1,4(a4)
   1459c:	00b701a3          	sb	a1,3(a4)
   145a0:	00b70123          	sb	a1,2(a4)
   145a4:	00b700a3          	sb	a1,1(a4)
   145a8:	00b70023          	sb	a1,0(a4)
   145ac:	00008067          	ret
   145b0:	0ff5f593          	andi	a1,a1,255
   145b4:	00859693          	slli	a3,a1,0x8
   145b8:	00d5e5b3          	or	a1,a1,a3
   145bc:	01059693          	slli	a3,a1,0x10
   145c0:	00d5e5b3          	or	a1,a1,a3
   145c4:	f6dff06f          	j	14530 <memset+0x18>
   145c8:	00279693          	slli	a3,a5,0x2
   145cc:	00000297          	auipc	t0,0x0
   145d0:	005686b3          	add	a3,a3,t0
   145d4:	00008293          	mv	t0,ra
   145d8:	fa0680e7          	jalr	-96(a3)
   145dc:	00028093          	mv	ra,t0
   145e0:	ff078793          	addi	a5,a5,-16
   145e4:	40f70733          	sub	a4,a4,a5
   145e8:	00f60633          	add	a2,a2,a5
   145ec:	f6c378e3          	bgeu	t1,a2,1455c <memset+0x44>
   145f0:	f3dff06f          	j	1452c <memset+0x14>

000145f4 <__malloc_lock>:
   145f4:	00008067          	ret

000145f8 <__malloc_unlock>:
   145f8:	00008067          	ret

000145fc <_open_r>:
   145fc:	ff010113          	addi	sp,sp,-16
   14600:	00058713          	mv	a4,a1
   14604:	00812423          	sw	s0,8(sp)
   14608:	00060593          	mv	a1,a2
   1460c:	00050413          	mv	s0,a0
   14610:	00068613          	mv	a2,a3
   14614:	00070513          	mv	a0,a4
   14618:	9201ac23          	sw	zero,-1736(gp) # 38f20 <errno>
   1461c:	00112623          	sw	ra,12(sp)
   14620:	7d9180ef          	jal	ra,2d5f8 <_open>
   14624:	fff00793          	li	a5,-1
   14628:	00f50a63          	beq	a0,a5,1463c <_open_r+0x40>
   1462c:	00c12083          	lw	ra,12(sp)
   14630:	00812403          	lw	s0,8(sp)
   14634:	01010113          	addi	sp,sp,16
   14638:	00008067          	ret
   1463c:	9381a783          	lw	a5,-1736(gp) # 38f20 <errno>
   14640:	fe0786e3          	beqz	a5,1462c <_open_r+0x30>
   14644:	00c12083          	lw	ra,12(sp)
   14648:	00f42023          	sw	a5,0(s0)
   1464c:	00812403          	lw	s0,8(sp)
   14650:	01010113          	addi	sp,sp,16
   14654:	00008067          	ret

00014658 <_printf_r>:
   14658:	fc010113          	addi	sp,sp,-64
   1465c:	02c12423          	sw	a2,40(sp)
   14660:	02d12623          	sw	a3,44(sp)
   14664:	02e12823          	sw	a4,48(sp)
   14668:	02f12a23          	sw	a5,52(sp)
   1466c:	03012c23          	sw	a6,56(sp)
   14670:	03112e23          	sw	a7,60(sp)
   14674:	00058613          	mv	a2,a1
   14678:	00852583          	lw	a1,8(a0)
   1467c:	02810693          	addi	a3,sp,40
   14680:	00112e23          	sw	ra,28(sp)
   14684:	00d12623          	sw	a3,12(sp)
   14688:	0b1040ef          	jal	ra,18f38 <_vfprintf_r>
   1468c:	01c12083          	lw	ra,28(sp)
   14690:	04010113          	addi	sp,sp,64
   14694:	00008067          	ret

00014698 <printf>:
   14698:	fc010113          	addi	sp,sp,-64
   1469c:	02c12423          	sw	a2,40(sp)
   146a0:	02d12623          	sw	a3,44(sp)
   146a4:	9141a303          	lw	t1,-1772(gp) # 38efc <_impure_ptr>
   146a8:	02b12223          	sw	a1,36(sp)
   146ac:	02e12823          	sw	a4,48(sp)
   146b0:	02f12a23          	sw	a5,52(sp)
   146b4:	03012c23          	sw	a6,56(sp)
   146b8:	03112e23          	sw	a7,60(sp)
   146bc:	00832583          	lw	a1,8(t1)
   146c0:	02410693          	addi	a3,sp,36
   146c4:	00050613          	mv	a2,a0
   146c8:	00030513          	mv	a0,t1
   146cc:	00112e23          	sw	ra,28(sp)
   146d0:	00d12623          	sw	a3,12(sp)
   146d4:	065040ef          	jal	ra,18f38 <_vfprintf_r>
   146d8:	01c12083          	lw	ra,28(sp)
   146dc:	04010113          	addi	sp,sp,64
   146e0:	00008067          	ret

000146e4 <_puts_r>:
   146e4:	fc010113          	addi	sp,sp,-64
   146e8:	02812c23          	sw	s0,56(sp)
   146ec:	00050413          	mv	s0,a0
   146f0:	00058513          	mv	a0,a1
   146f4:	02912a23          	sw	s1,52(sp)
   146f8:	02112e23          	sw	ra,60(sp)
   146fc:	00058493          	mv	s1,a1
   14700:	760000ef          	jal	ra,14e60 <strlen>
   14704:	00150713          	addi	a4,a0,1
   14708:	00020697          	auipc	a3,0x20
   1470c:	cb468693          	addi	a3,a3,-844 # 343bc <_ZL12NODE_ADDRESS+0xcc>
   14710:	00e12e23          	sw	a4,28(sp)
   14714:	03842783          	lw	a5,56(s0)
   14718:	02010713          	addi	a4,sp,32
   1471c:	02d12423          	sw	a3,40(sp)
   14720:	00e12a23          	sw	a4,20(sp)
   14724:	00100693          	li	a3,1
   14728:	00200713          	li	a4,2
   1472c:	02912023          	sw	s1,32(sp)
   14730:	02a12223          	sw	a0,36(sp)
   14734:	02d12623          	sw	a3,44(sp)
   14738:	00e12c23          	sw	a4,24(sp)
   1473c:	00842583          	lw	a1,8(s0)
   14740:	04078e63          	beqz	a5,1479c <_puts_r+0xb8>
   14744:	00c59783          	lh	a5,12(a1)
   14748:	01279713          	slli	a4,a5,0x12
   1474c:	02074263          	bltz	a4,14770 <_puts_r+0x8c>
   14750:	0645a703          	lw	a4,100(a1)
   14754:	000026b7          	lui	a3,0x2
   14758:	00d7e7b3          	or	a5,a5,a3
   1475c:	ffffe6b7          	lui	a3,0xffffe
   14760:	fff68693          	addi	a3,a3,-1 # ffffdfff <__BSS_END__+0xfffa308f>
   14764:	00d77733          	and	a4,a4,a3
   14768:	00f59623          	sh	a5,12(a1)
   1476c:	06e5a223          	sw	a4,100(a1)
   14770:	01410613          	addi	a2,sp,20
   14774:	00040513          	mv	a0,s0
   14778:	14d070ef          	jal	ra,1c0c4 <__sfvwrite_r>
   1477c:	03c12083          	lw	ra,60(sp)
   14780:	03812403          	lw	s0,56(sp)
   14784:	00a03533          	snez	a0,a0
   14788:	40a00533          	neg	a0,a0
   1478c:	03412483          	lw	s1,52(sp)
   14790:	00a56513          	ori	a0,a0,10
   14794:	04010113          	addi	sp,sp,64
   14798:	00008067          	ret
   1479c:	00040513          	mv	a0,s0
   147a0:	00b12623          	sw	a1,12(sp)
   147a4:	b1cfe0ef          	jal	ra,12ac0 <__sinit>
   147a8:	00c12583          	lw	a1,12(sp)
   147ac:	f99ff06f          	j	14744 <_puts_r+0x60>

000147b0 <puts>:
   147b0:	00050593          	mv	a1,a0
   147b4:	9141a503          	lw	a0,-1772(gp) # 38efc <_impure_ptr>
   147b8:	f2dff06f          	j	146e4 <_puts_r>

000147bc <cleanup_glue>:
   147bc:	fe010113          	addi	sp,sp,-32
   147c0:	01212823          	sw	s2,16(sp)
   147c4:	0005a903          	lw	s2,0(a1)
   147c8:	00812c23          	sw	s0,24(sp)
   147cc:	00912a23          	sw	s1,20(sp)
   147d0:	00112e23          	sw	ra,28(sp)
   147d4:	01312623          	sw	s3,12(sp)
   147d8:	01412423          	sw	s4,8(sp)
   147dc:	00058413          	mv	s0,a1
   147e0:	00050493          	mv	s1,a0
   147e4:	04090263          	beqz	s2,14828 <cleanup_glue+0x6c>
   147e8:	00092983          	lw	s3,0(s2)
   147ec:	02098863          	beqz	s3,1481c <cleanup_glue+0x60>
   147f0:	0009aa03          	lw	s4,0(s3)
   147f4:	000a0e63          	beqz	s4,14810 <cleanup_glue+0x54>
   147f8:	000a2583          	lw	a1,0(s4)
   147fc:	00058463          	beqz	a1,14804 <cleanup_glue+0x48>
   14800:	fbdff0ef          	jal	ra,147bc <cleanup_glue>
   14804:	000a0593          	mv	a1,s4
   14808:	00048513          	mv	a0,s1
   1480c:	e68fe0ef          	jal	ra,12e74 <_free_r>
   14810:	00098593          	mv	a1,s3
   14814:	00048513          	mv	a0,s1
   14818:	e5cfe0ef          	jal	ra,12e74 <_free_r>
   1481c:	00090593          	mv	a1,s2
   14820:	00048513          	mv	a0,s1
   14824:	e50fe0ef          	jal	ra,12e74 <_free_r>
   14828:	00040593          	mv	a1,s0
   1482c:	01812403          	lw	s0,24(sp)
   14830:	01c12083          	lw	ra,28(sp)
   14834:	01012903          	lw	s2,16(sp)
   14838:	00c12983          	lw	s3,12(sp)
   1483c:	00812a03          	lw	s4,8(sp)
   14840:	00048513          	mv	a0,s1
   14844:	01412483          	lw	s1,20(sp)
   14848:	02010113          	addi	sp,sp,32
   1484c:	e28fe06f          	j	12e74 <_free_r>

00014850 <_reclaim_reent>:
   14850:	9141a783          	lw	a5,-1772(gp) # 38efc <_impure_ptr>
   14854:	10a78a63          	beq	a5,a0,14968 <_reclaim_reent+0x118>
   14858:	04c52583          	lw	a1,76(a0)
   1485c:	fe010113          	addi	sp,sp,-32
   14860:	00912a23          	sw	s1,20(sp)
   14864:	00112e23          	sw	ra,28(sp)
   14868:	00812c23          	sw	s0,24(sp)
   1486c:	01212823          	sw	s2,16(sp)
   14870:	01312623          	sw	s3,12(sp)
   14874:	00050493          	mv	s1,a0
   14878:	04058063          	beqz	a1,148b8 <_reclaim_reent+0x68>
   1487c:	00000913          	li	s2,0
   14880:	08000993          	li	s3,128
   14884:	012587b3          	add	a5,a1,s2
   14888:	0007a403          	lw	s0,0(a5)
   1488c:	00040e63          	beqz	s0,148a8 <_reclaim_reent+0x58>
   14890:	00040593          	mv	a1,s0
   14894:	00042403          	lw	s0,0(s0)
   14898:	00048513          	mv	a0,s1
   1489c:	dd8fe0ef          	jal	ra,12e74 <_free_r>
   148a0:	fe0418e3          	bnez	s0,14890 <_reclaim_reent+0x40>
   148a4:	04c4a583          	lw	a1,76(s1)
   148a8:	00490913          	addi	s2,s2,4
   148ac:	fd391ce3          	bne	s2,s3,14884 <_reclaim_reent+0x34>
   148b0:	00048513          	mv	a0,s1
   148b4:	dc0fe0ef          	jal	ra,12e74 <_free_r>
   148b8:	0404a583          	lw	a1,64(s1)
   148bc:	00058663          	beqz	a1,148c8 <_reclaim_reent+0x78>
   148c0:	00048513          	mv	a0,s1
   148c4:	db0fe0ef          	jal	ra,12e74 <_free_r>
   148c8:	1484a403          	lw	s0,328(s1)
   148cc:	02040063          	beqz	s0,148ec <_reclaim_reent+0x9c>
   148d0:	14c48913          	addi	s2,s1,332
   148d4:	01240c63          	beq	s0,s2,148ec <_reclaim_reent+0x9c>
   148d8:	00040593          	mv	a1,s0
   148dc:	00042403          	lw	s0,0(s0)
   148e0:	00048513          	mv	a0,s1
   148e4:	d90fe0ef          	jal	ra,12e74 <_free_r>
   148e8:	fe8918e3          	bne	s2,s0,148d8 <_reclaim_reent+0x88>
   148ec:	0544a583          	lw	a1,84(s1)
   148f0:	00058663          	beqz	a1,148fc <_reclaim_reent+0xac>
   148f4:	00048513          	mv	a0,s1
   148f8:	d7cfe0ef          	jal	ra,12e74 <_free_r>
   148fc:	0384a783          	lw	a5,56(s1)
   14900:	04078663          	beqz	a5,1494c <_reclaim_reent+0xfc>
   14904:	03c4a783          	lw	a5,60(s1)
   14908:	00048513          	mv	a0,s1
   1490c:	000780e7          	jalr	a5
   14910:	2e04a403          	lw	s0,736(s1)
   14914:	02040c63          	beqz	s0,1494c <_reclaim_reent+0xfc>
   14918:	00042583          	lw	a1,0(s0)
   1491c:	00058663          	beqz	a1,14928 <_reclaim_reent+0xd8>
   14920:	00048513          	mv	a0,s1
   14924:	e99ff0ef          	jal	ra,147bc <cleanup_glue>
   14928:	00040593          	mv	a1,s0
   1492c:	01812403          	lw	s0,24(sp)
   14930:	01c12083          	lw	ra,28(sp)
   14934:	01012903          	lw	s2,16(sp)
   14938:	00c12983          	lw	s3,12(sp)
   1493c:	00048513          	mv	a0,s1
   14940:	01412483          	lw	s1,20(sp)
   14944:	02010113          	addi	sp,sp,32
   14948:	d2cfe06f          	j	12e74 <_free_r>
   1494c:	01c12083          	lw	ra,28(sp)
   14950:	01812403          	lw	s0,24(sp)
   14954:	01412483          	lw	s1,20(sp)
   14958:	01012903          	lw	s2,16(sp)
   1495c:	00c12983          	lw	s3,12(sp)
   14960:	02010113          	addi	sp,sp,32
   14964:	00008067          	ret
   14968:	00008067          	ret

0001496c <lflush>:
   1496c:	00c55783          	lhu	a5,12(a0)
   14970:	00900713          	li	a4,9
   14974:	0097f793          	andi	a5,a5,9
   14978:	00e78663          	beq	a5,a4,14984 <lflush+0x18>
   1497c:	00000513          	li	a0,0
   14980:	00008067          	ret
   14984:	c0dfd06f          	j	12590 <fflush>

00014988 <__srefill_r>:
   14988:	fe010113          	addi	sp,sp,-32
   1498c:	00812c23          	sw	s0,24(sp)
   14990:	00912a23          	sw	s1,20(sp)
   14994:	00112e23          	sw	ra,28(sp)
   14998:	01212823          	sw	s2,16(sp)
   1499c:	01312623          	sw	s3,12(sp)
   149a0:	00050493          	mv	s1,a0
   149a4:	00058413          	mv	s0,a1
   149a8:	00050663          	beqz	a0,149b4 <__srefill_r+0x2c>
   149ac:	03852783          	lw	a5,56(a0)
   149b0:	12078463          	beqz	a5,14ad8 <__srefill_r+0x150>
   149b4:	00c41783          	lh	a5,12(s0)
   149b8:	000026b7          	lui	a3,0x2
   149bc:	01079713          	slli	a4,a5,0x10
   149c0:	01075713          	srli	a4,a4,0x10
   149c4:	00d77633          	and	a2,a4,a3
   149c8:	02061863          	bnez	a2,149f8 <__srefill_r+0x70>
   149cc:	06442703          	lw	a4,100(s0)
   149d0:	00d7e7b3          	or	a5,a5,a3
   149d4:	ffffe6b7          	lui	a3,0xffffe
   149d8:	01079793          	slli	a5,a5,0x10
   149dc:	fff68693          	addi	a3,a3,-1 # ffffdfff <__BSS_END__+0xfffa308f>
   149e0:	4107d793          	srai	a5,a5,0x10
   149e4:	00d77733          	and	a4,a4,a3
   149e8:	06e42223          	sw	a4,100(s0)
   149ec:	01079713          	slli	a4,a5,0x10
   149f0:	00f41623          	sh	a5,12(s0)
   149f4:	01075713          	srli	a4,a4,0x10
   149f8:	00042223          	sw	zero,4(s0)
   149fc:	02077693          	andi	a3,a4,32
   14a00:	14069c63          	bnez	a3,14b58 <__srefill_r+0x1d0>
   14a04:	00477693          	andi	a3,a4,4
   14a08:	08069063          	bnez	a3,14a88 <__srefill_r+0x100>
   14a0c:	01077693          	andi	a3,a4,16
   14a10:	16068463          	beqz	a3,14b78 <__srefill_r+0x1f0>
   14a14:	00877713          	andi	a4,a4,8
   14a18:	10071063          	bnez	a4,14b18 <__srefill_r+0x190>
   14a1c:	0047e793          	ori	a5,a5,4
   14a20:	00f41623          	sh	a5,12(s0)
   14a24:	01042783          	lw	a5,16(s0)
   14a28:	10078a63          	beqz	a5,14b3c <__srefill_r+0x1b4>
   14a2c:	00c41903          	lh	s2,12(s0)
   14a30:	01091993          	slli	s3,s2,0x10
   14a34:	00397793          	andi	a5,s2,3
   14a38:	0109d993          	srli	s3,s3,0x10
   14a3c:	0a079263          	bnez	a5,14ae0 <__srefill_r+0x158>
   14a40:	01042603          	lw	a2,16(s0)
   14a44:	02042783          	lw	a5,32(s0)
   14a48:	01442683          	lw	a3,20(s0)
   14a4c:	01c42583          	lw	a1,28(s0)
   14a50:	00c42023          	sw	a2,0(s0)
   14a54:	00048513          	mv	a0,s1
   14a58:	000780e7          	jalr	a5
   14a5c:	00050793          	mv	a5,a0
   14a60:	00a42223          	sw	a0,4(s0)
   14a64:	00000513          	li	a0,0
   14a68:	0ef05c63          	blez	a5,14b60 <__srefill_r+0x1d8>
   14a6c:	01c12083          	lw	ra,28(sp)
   14a70:	01812403          	lw	s0,24(sp)
   14a74:	01412483          	lw	s1,20(sp)
   14a78:	01012903          	lw	s2,16(sp)
   14a7c:	00c12983          	lw	s3,12(sp)
   14a80:	02010113          	addi	sp,sp,32
   14a84:	00008067          	ret
   14a88:	03042583          	lw	a1,48(s0)
   14a8c:	f8058ce3          	beqz	a1,14a24 <__srefill_r+0x9c>
   14a90:	04040793          	addi	a5,s0,64
   14a94:	00f58663          	beq	a1,a5,14aa0 <__srefill_r+0x118>
   14a98:	00048513          	mv	a0,s1
   14a9c:	bd8fe0ef          	jal	ra,12e74 <_free_r>
   14aa0:	03c42783          	lw	a5,60(s0)
   14aa4:	02042823          	sw	zero,48(s0)
   14aa8:	00f42223          	sw	a5,4(s0)
   14aac:	f6078ce3          	beqz	a5,14a24 <__srefill_r+0x9c>
   14ab0:	03842783          	lw	a5,56(s0)
   14ab4:	01c12083          	lw	ra,28(sp)
   14ab8:	01412483          	lw	s1,20(sp)
   14abc:	00f42023          	sw	a5,0(s0)
   14ac0:	01812403          	lw	s0,24(sp)
   14ac4:	01012903          	lw	s2,16(sp)
   14ac8:	00c12983          	lw	s3,12(sp)
   14acc:	00000513          	li	a0,0
   14ad0:	02010113          	addi	sp,sp,32
   14ad4:	00008067          	ret
   14ad8:	fe9fd0ef          	jal	ra,12ac0 <__sinit>
   14adc:	ed9ff06f          	j	149b4 <__srefill_r+0x2c>
   14ae0:	00100793          	li	a5,1
   14ae4:	00f41623          	sh	a5,12(s0)
   14ae8:	00000597          	auipc	a1,0x0
   14aec:	e8458593          	addi	a1,a1,-380 # 1496c <lflush>
   14af0:	9081a503          	lw	a0,-1784(gp) # 38ef0 <_global_impure_ptr>
   14af4:	c39fe0ef          	jal	ra,1372c <_fwalk>
   14af8:	0099f993          	andi	s3,s3,9
   14afc:	01241623          	sh	s2,12(s0)
   14b00:	00900793          	li	a5,9
   14b04:	f2f99ee3          	bne	s3,a5,14a40 <__srefill_r+0xb8>
   14b08:	00040593          	mv	a1,s0
   14b0c:	00048513          	mv	a0,s1
   14b10:	fbcfd0ef          	jal	ra,122cc <__sflush_r>
   14b14:	f2dff06f          	j	14a40 <__srefill_r+0xb8>
   14b18:	00040593          	mv	a1,s0
   14b1c:	00048513          	mv	a0,s1
   14b20:	a11fd0ef          	jal	ra,12530 <_fflush_r>
   14b24:	02051a63          	bnez	a0,14b58 <__srefill_r+0x1d0>
   14b28:	00c41783          	lh	a5,12(s0)
   14b2c:	00042423          	sw	zero,8(s0)
   14b30:	00042c23          	sw	zero,24(s0)
   14b34:	ff77f793          	andi	a5,a5,-9
   14b38:	ee5ff06f          	j	14a1c <__srefill_r+0x94>
   14b3c:	00040593          	mv	a1,s0
   14b40:	00048513          	mv	a0,s1
   14b44:	dd5fe0ef          	jal	ra,13918 <__smakebuf_r>
   14b48:	ee5ff06f          	j	14a2c <__srefill_r+0xa4>
   14b4c:	04076713          	ori	a4,a4,64
   14b50:	00042223          	sw	zero,4(s0)
   14b54:	00e41623          	sh	a4,12(s0)
   14b58:	fff00513          	li	a0,-1
   14b5c:	f11ff06f          	j	14a6c <__srefill_r+0xe4>
   14b60:	00c41703          	lh	a4,12(s0)
   14b64:	fe0794e3          	bnez	a5,14b4c <__srefill_r+0x1c4>
   14b68:	02076713          	ori	a4,a4,32
   14b6c:	00e41623          	sh	a4,12(s0)
   14b70:	fff00513          	li	a0,-1
   14b74:	ef9ff06f          	j	14a6c <__srefill_r+0xe4>
   14b78:	00900713          	li	a4,9
   14b7c:	00e4a023          	sw	a4,0(s1)
   14b80:	0407e793          	ori	a5,a5,64
   14b84:	00f41623          	sh	a5,12(s0)
   14b88:	fff00513          	li	a0,-1
   14b8c:	ee1ff06f          	j	14a6c <__srefill_r+0xe4>

00014b90 <_sbrk_r>:
   14b90:	ff010113          	addi	sp,sp,-16
   14b94:	00812423          	sw	s0,8(sp)
   14b98:	00050413          	mv	s0,a0
   14b9c:	00058513          	mv	a0,a1
   14ba0:	9201ac23          	sw	zero,-1736(gp) # 38f20 <errno>
   14ba4:	00112623          	sw	ra,12(sp)
   14ba8:	2f1180ef          	jal	ra,2d698 <_sbrk>
   14bac:	fff00793          	li	a5,-1
   14bb0:	00f50a63          	beq	a0,a5,14bc4 <_sbrk_r+0x34>
   14bb4:	00c12083          	lw	ra,12(sp)
   14bb8:	00812403          	lw	s0,8(sp)
   14bbc:	01010113          	addi	sp,sp,16
   14bc0:	00008067          	ret
   14bc4:	9381a783          	lw	a5,-1736(gp) # 38f20 <errno>
   14bc8:	fe0786e3          	beqz	a5,14bb4 <_sbrk_r+0x24>
   14bcc:	00c12083          	lw	ra,12(sp)
   14bd0:	00f42023          	sw	a5,0(s0)
   14bd4:	00812403          	lw	s0,8(sp)
   14bd8:	01010113          	addi	sp,sp,16
   14bdc:	00008067          	ret

00014be0 <sscanf>:
   14be0:	f6010113          	addi	sp,sp,-160
   14be4:	08f12a23          	sw	a5,148(sp)
   14be8:	20400793          	li	a5,516
   14bec:	06112e23          	sw	ra,124(sp)
   14bf0:	06812c23          	sw	s0,120(sp)
   14bf4:	08c12423          	sw	a2,136(sp)
   14bf8:	00058413          	mv	s0,a1
   14bfc:	08d12623          	sw	a3,140(sp)
   14c00:	08e12823          	sw	a4,144(sp)
   14c04:	09012c23          	sw	a6,152(sp)
   14c08:	09112e23          	sw	a7,156(sp)
   14c0c:	00f11a23          	sh	a5,20(sp)
   14c10:	00a12423          	sw	a0,8(sp)
   14c14:	00a12c23          	sw	a0,24(sp)
   14c18:	248000ef          	jal	ra,14e60 <strlen>
   14c1c:	00050793          	mv	a5,a0
   14c20:	00f12623          	sw	a5,12(sp)
   14c24:	00f12e23          	sw	a5,28(sp)
   14c28:	00000797          	auipc	a5,0x0
   14c2c:	13878793          	addi	a5,a5,312 # 14d60 <__seofread>
   14c30:	08810693          	addi	a3,sp,136
   14c34:	02f12423          	sw	a5,40(sp)
   14c38:	00040613          	mv	a2,s0
   14c3c:	00810593          	addi	a1,sp,8
   14c40:	fff00793          	li	a5,-1
   14c44:	9141a503          	lw	a0,-1772(gp) # 38efc <_impure_ptr>
   14c48:	02012c23          	sw	zero,56(sp)
   14c4c:	04012623          	sw	zero,76(sp)
   14c50:	00f11b23          	sh	a5,22(sp)
   14c54:	00d12223          	sw	a3,4(sp)
   14c58:	294000ef          	jal	ra,14eec <__ssvfscanf_r>
   14c5c:	07c12083          	lw	ra,124(sp)
   14c60:	07812403          	lw	s0,120(sp)
   14c64:	0a010113          	addi	sp,sp,160
   14c68:	00008067          	ret

00014c6c <_sscanf_r>:
   14c6c:	f6010113          	addi	sp,sp,-160
   14c70:	06812c23          	sw	s0,120(sp)
   14c74:	08f12a23          	sw	a5,148(sp)
   14c78:	00050413          	mv	s0,a0
   14c7c:	20400793          	li	a5,516
   14c80:	00058513          	mv	a0,a1
   14c84:	06112e23          	sw	ra,124(sp)
   14c88:	06912a23          	sw	s1,116(sp)
   14c8c:	08d12623          	sw	a3,140(sp)
   14c90:	00060493          	mv	s1,a2
   14c94:	08e12823          	sw	a4,144(sp)
   14c98:	09012c23          	sw	a6,152(sp)
   14c9c:	09112e23          	sw	a7,156(sp)
   14ca0:	00f11a23          	sh	a5,20(sp)
   14ca4:	00b12423          	sw	a1,8(sp)
   14ca8:	00b12c23          	sw	a1,24(sp)
   14cac:	1b4000ef          	jal	ra,14e60 <strlen>
   14cb0:	00050793          	mv	a5,a0
   14cb4:	00f12623          	sw	a5,12(sp)
   14cb8:	00f12e23          	sw	a5,28(sp)
   14cbc:	00000797          	auipc	a5,0x0
   14cc0:	0a478793          	addi	a5,a5,164 # 14d60 <__seofread>
   14cc4:	08c10693          	addi	a3,sp,140
   14cc8:	02f12423          	sw	a5,40(sp)
   14ccc:	00048613          	mv	a2,s1
   14cd0:	00810593          	addi	a1,sp,8
   14cd4:	00040513          	mv	a0,s0
   14cd8:	fff00793          	li	a5,-1
   14cdc:	02012c23          	sw	zero,56(sp)
   14ce0:	04012623          	sw	zero,76(sp)
   14ce4:	00f11b23          	sh	a5,22(sp)
   14ce8:	00d12223          	sw	a3,4(sp)
   14cec:	200000ef          	jal	ra,14eec <__ssvfscanf_r>
   14cf0:	07c12083          	lw	ra,124(sp)
   14cf4:	07812403          	lw	s0,120(sp)
   14cf8:	07412483          	lw	s1,116(sp)
   14cfc:	0a010113          	addi	sp,sp,160
   14d00:	00008067          	ret

00014d04 <__sread>:
   14d04:	ff010113          	addi	sp,sp,-16
   14d08:	00812423          	sw	s0,8(sp)
   14d0c:	00058413          	mv	s0,a1
   14d10:	00e59583          	lh	a1,14(a1)
   14d14:	00112623          	sw	ra,12(sp)
   14d18:	45d0b0ef          	jal	ra,20974 <_read_r>
   14d1c:	02054063          	bltz	a0,14d3c <__sread+0x38>
   14d20:	05042783          	lw	a5,80(s0)
   14d24:	00c12083          	lw	ra,12(sp)
   14d28:	00a787b3          	add	a5,a5,a0
   14d2c:	04f42823          	sw	a5,80(s0)
   14d30:	00812403          	lw	s0,8(sp)
   14d34:	01010113          	addi	sp,sp,16
   14d38:	00008067          	ret
   14d3c:	00c45783          	lhu	a5,12(s0)
   14d40:	fffff737          	lui	a4,0xfffff
   14d44:	fff70713          	addi	a4,a4,-1 # ffffefff <__BSS_END__+0xfffa408f>
   14d48:	00e7f7b3          	and	a5,a5,a4
   14d4c:	00c12083          	lw	ra,12(sp)
   14d50:	00f41623          	sh	a5,12(s0)
   14d54:	00812403          	lw	s0,8(sp)
   14d58:	01010113          	addi	sp,sp,16
   14d5c:	00008067          	ret

00014d60 <__seofread>:
   14d60:	00000513          	li	a0,0
   14d64:	00008067          	ret

00014d68 <__swrite>:
   14d68:	00c59783          	lh	a5,12(a1)
   14d6c:	fe010113          	addi	sp,sp,-32
   14d70:	00812c23          	sw	s0,24(sp)
   14d74:	00912a23          	sw	s1,20(sp)
   14d78:	01212823          	sw	s2,16(sp)
   14d7c:	01312623          	sw	s3,12(sp)
   14d80:	00112e23          	sw	ra,28(sp)
   14d84:	1007f713          	andi	a4,a5,256
   14d88:	00058413          	mv	s0,a1
   14d8c:	00050493          	mv	s1,a0
   14d90:	00e59583          	lh	a1,14(a1)
   14d94:	00060913          	mv	s2,a2
   14d98:	00068993          	mv	s3,a3
   14d9c:	02071e63          	bnez	a4,14dd8 <__swrite+0x70>
   14da0:	fffff737          	lui	a4,0xfffff
   14da4:	fff70713          	addi	a4,a4,-1 # ffffefff <__BSS_END__+0xfffa408f>
   14da8:	00e7f7b3          	and	a5,a5,a4
   14dac:	00f41623          	sh	a5,12(s0)
   14db0:	01812403          	lw	s0,24(sp)
   14db4:	01c12083          	lw	ra,28(sp)
   14db8:	00098693          	mv	a3,s3
   14dbc:	00090613          	mv	a2,s2
   14dc0:	00c12983          	lw	s3,12(sp)
   14dc4:	01012903          	lw	s2,16(sp)
   14dc8:	00048513          	mv	a0,s1
   14dcc:	01412483          	lw	s1,20(sp)
   14dd0:	02010113          	addi	sp,sp,32
   14dd4:	4c90606f          	j	1ba9c <_write_r>
   14dd8:	00200693          	li	a3,2
   14ddc:	00000613          	li	a2,0
   14de0:	5c40a0ef          	jal	ra,1f3a4 <_lseek_r>
   14de4:	00c41783          	lh	a5,12(s0)
   14de8:	00e41583          	lh	a1,14(s0)
   14dec:	fb5ff06f          	j	14da0 <__swrite+0x38>

00014df0 <__sseek>:
   14df0:	ff010113          	addi	sp,sp,-16
   14df4:	00812423          	sw	s0,8(sp)
   14df8:	00058413          	mv	s0,a1
   14dfc:	00e59583          	lh	a1,14(a1)
   14e00:	00112623          	sw	ra,12(sp)
   14e04:	5a00a0ef          	jal	ra,1f3a4 <_lseek_r>
   14e08:	fff00793          	li	a5,-1
   14e0c:	02f50463          	beq	a0,a5,14e34 <__sseek+0x44>
   14e10:	00c45783          	lhu	a5,12(s0)
   14e14:	00001737          	lui	a4,0x1
   14e18:	00c12083          	lw	ra,12(sp)
   14e1c:	00e7e7b3          	or	a5,a5,a4
   14e20:	04a42823          	sw	a0,80(s0)
   14e24:	00f41623          	sh	a5,12(s0)
   14e28:	00812403          	lw	s0,8(sp)
   14e2c:	01010113          	addi	sp,sp,16
   14e30:	00008067          	ret
   14e34:	00c45783          	lhu	a5,12(s0)
   14e38:	fffff737          	lui	a4,0xfffff
   14e3c:	fff70713          	addi	a4,a4,-1 # ffffefff <__BSS_END__+0xfffa408f>
   14e40:	00e7f7b3          	and	a5,a5,a4
   14e44:	00c12083          	lw	ra,12(sp)
   14e48:	00f41623          	sh	a5,12(s0)
   14e4c:	00812403          	lw	s0,8(sp)
   14e50:	01010113          	addi	sp,sp,16
   14e54:	00008067          	ret

00014e58 <__sclose>:
   14e58:	00e59583          	lh	a1,14(a1)
   14e5c:	73d0606f          	j	1bd98 <_close_r>

00014e60 <strlen>:
   14e60:	00357793          	andi	a5,a0,3
   14e64:	00050713          	mv	a4,a0
   14e68:	04079c63          	bnez	a5,14ec0 <strlen+0x60>
   14e6c:	7f7f86b7          	lui	a3,0x7f7f8
   14e70:	f7f68693          	addi	a3,a3,-129 # 7f7f7f7f <__BSS_END__+0x7f79d00f>
   14e74:	fff00593          	li	a1,-1
   14e78:	00072603          	lw	a2,0(a4)
   14e7c:	00470713          	addi	a4,a4,4
   14e80:	00d677b3          	and	a5,a2,a3
   14e84:	00d787b3          	add	a5,a5,a3
   14e88:	00c7e7b3          	or	a5,a5,a2
   14e8c:	00d7e7b3          	or	a5,a5,a3
   14e90:	feb784e3          	beq	a5,a1,14e78 <strlen+0x18>
   14e94:	ffc74683          	lbu	a3,-4(a4)
   14e98:	ffd74603          	lbu	a2,-3(a4)
   14e9c:	ffe74783          	lbu	a5,-2(a4)
   14ea0:	40a70733          	sub	a4,a4,a0
   14ea4:	04068063          	beqz	a3,14ee4 <strlen+0x84>
   14ea8:	02060a63          	beqz	a2,14edc <strlen+0x7c>
   14eac:	00f03533          	snez	a0,a5
   14eb0:	00e50533          	add	a0,a0,a4
   14eb4:	ffe50513          	addi	a0,a0,-2
   14eb8:	00008067          	ret
   14ebc:	fa0688e3          	beqz	a3,14e6c <strlen+0xc>
   14ec0:	00074783          	lbu	a5,0(a4)
   14ec4:	00170713          	addi	a4,a4,1
   14ec8:	00377693          	andi	a3,a4,3
   14ecc:	fe0798e3          	bnez	a5,14ebc <strlen+0x5c>
   14ed0:	40a70733          	sub	a4,a4,a0
   14ed4:	fff70513          	addi	a0,a4,-1
   14ed8:	00008067          	ret
   14edc:	ffd70513          	addi	a0,a4,-3
   14ee0:	00008067          	ret
   14ee4:	ffc70513          	addi	a0,a4,-4
   14ee8:	00008067          	ret

00014eec <__ssvfscanf_r>:
   14eec:	ae010113          	addi	sp,sp,-1312
   14ef0:	50812c23          	sw	s0,1304(sp)
   14ef4:	4f812c23          	sw	s8,1272(sp)
   14ef8:	4f912a23          	sw	s9,1268(sp)
   14efc:	50112e23          	sw	ra,1308(sp)
   14f00:	50912a23          	sw	s1,1300(sp)
   14f04:	51212823          	sw	s2,1296(sp)
   14f08:	51312623          	sw	s3,1292(sp)
   14f0c:	51412423          	sw	s4,1288(sp)
   14f10:	51512223          	sw	s5,1284(sp)
   14f14:	51612023          	sw	s6,1280(sp)
   14f18:	4f712e23          	sw	s7,1276(sp)
   14f1c:	4fa12823          	sw	s10,1264(sp)
   14f20:	4fb12623          	sw	s11,1260(sp)
   14f24:	52010413          	addi	s0,sp,1312
   14f28:	00c59703          	lh	a4,12(a1)
   14f2c:	fffff7b7          	lui	a5,0xfffff
   14f30:	b1078793          	addi	a5,a5,-1264 # ffffeb10 <__BSS_END__+0xfffa3ba0>
   14f34:	008787b3          	add	a5,a5,s0
   14f38:	fffff337          	lui	t1,0xfffff
   14f3c:	00d7a023          	sw	a3,0(a5)
   14f40:	01271793          	slli	a5,a4,0x12
   14f44:	00610133          	add	sp,sp,t1
   14f48:	00058c13          	mv	s8,a1
   14f4c:	00050c93          	mv	s9,a0
   14f50:	0207c263          	bltz	a5,14f74 <__ssvfscanf_r+0x88>
   14f54:	0645a683          	lw	a3,100(a1)
   14f58:	000025b7          	lui	a1,0x2
   14f5c:	00b76733          	or	a4,a4,a1
   14f60:	ffffe5b7          	lui	a1,0xffffe
   14f64:	fff58593          	addi	a1,a1,-1 # ffffdfff <__BSS_END__+0xfffa308f>
   14f68:	00b6f6b3          	and	a3,a3,a1
   14f6c:	00ec1623          	sh	a4,12(s8)
   14f70:	06dc2223          	sw	a3,100(s8)
   14f74:	00064703          	lbu	a4,0(a2)
   14f78:	fc040793          	addi	a5,s0,-64
   14f7c:	fffff6b7          	lui	a3,0xfffff
   14f80:	00d786b3          	add	a3,a5,a3
   14f84:	b6e6ae23          	sw	a4,-1156(a3) # ffffeb7c <__BSS_END__+0xfffa3c0c>
   14f88:	00160a13          	addi	s4,a2,1
   14f8c:	fffff7b7          	lui	a5,0xfffff
   14f90:	00071463          	bnez	a4,14f98 <__ssvfscanf_r+0xac>
   14f94:	6280206f          	j	175bc <__ssvfscanf_r+0x26d0>
   14f98:	b8078613          	addi	a2,a5,-1152 # ffffeb80 <__BSS_END__+0xfffa3c10>
   14f9c:	b8878693          	addi	a3,a5,-1144
   14fa0:	b0878793          	addi	a5,a5,-1272
   14fa4:	008787b3          	add	a5,a5,s0
   14fa8:	0007a023          	sw	zero,0(a5)
   14fac:	fffff7b7          	lui	a5,0xfffff
   14fb0:	b1878793          	addi	a5,a5,-1256 # ffffeb18 <__BSS_END__+0xfffa3ba8>
   14fb4:	008787b3          	add	a5,a5,s0
   14fb8:	0007a023          	sw	zero,0(a5)
   14fbc:	fffff7b7          	lui	a5,0xfffff
   14fc0:	b0c78793          	addi	a5,a5,-1268 # ffffeb0c <__BSS_END__+0xfffa3b9c>
   14fc4:	008787b3          	add	a5,a5,s0
   14fc8:	0007a023          	sw	zero,0(a5)
   14fcc:	fffff7b7          	lui	a5,0xfffff
   14fd0:	b1478793          	addi	a5,a5,-1260 # ffffeb14 <__BSS_END__+0xfffa3ba4>
   14fd4:	008787b3          	add	a5,a5,s0
   14fd8:	0007a023          	sw	zero,0(a5)
   14fdc:	fc040793          	addi	a5,s0,-64
   14fe0:	00c787b3          	add	a5,a5,a2
   14fe4:	fffff637          	lui	a2,0xfffff
   14fe8:	b0060613          	addi	a2,a2,-1280 # ffffeb00 <__BSS_END__+0xfffa3b90>
   14fec:	00860633          	add	a2,a2,s0
   14ff0:	00f62023          	sw	a5,0(a2)
   14ff4:	fc040793          	addi	a5,s0,-64
   14ff8:	00d787b3          	add	a5,a5,a3
   14ffc:	fffff6b7          	lui	a3,0xfffff
   15000:	b1c68693          	addi	a3,a3,-1252 # ffffeb1c <__BSS_END__+0xfffa3bac>
   15004:	008686b3          	add	a3,a3,s0
   15008:	00f6a023          	sw	a5,0(a3)
   1500c:	fffff7b7          	lui	a5,0xfffff
   15010:	b0478793          	addi	a5,a5,-1276 # ffffeb04 <__BSS_END__+0xfffa3b94>
   15014:	00000d93          	li	s11,0
   15018:	00000b13          	li	s6,0
   1501c:	008787b3          	add	a5,a5,s0
   15020:	000c0b93          	mv	s7,s8
   15024:	00020a97          	auipc	s5,0x20
   15028:	b2da8a93          	addi	s5,s5,-1235 # 34b51 <_ctype_+0x1>
   1502c:	000c8c13          	mv	s8,s9
   15030:	0167a023          	sw	s6,0(a5)
   15034:	000d8c93          	mv	s9,s11
   15038:	000a0d93          	mv	s11,s4
   1503c:	00ea86b3          	add	a3,s5,a4
   15040:	0006c683          	lbu	a3,0(a3)
   15044:	0086fa13          	andi	s4,a3,8
   15048:	0e0a1a63          	bnez	s4,1513c <__ssvfscanf_r+0x250>
   1504c:	02500613          	li	a2,37
   15050:	04c71663          	bne	a4,a2,1509c <__ssvfscanf_r+0x1b0>
   15054:	000dc603          	lbu	a2,0(s11)
   15058:	00000b13          	li	s6,0
   1505c:	00000d13          	li	s10,0
   15060:	05500513          	li	a0,85
   15064:	06800e13          	li	t3,104
   15068:	06c00313          	li	t1,108
   1506c:	fdb60793          	addi	a5,a2,-37
   15070:	0ff7f793          	andi	a5,a5,255
   15074:	001d8593          	addi	a1,s11,1
   15078:	22f56063          	bltu	a0,a5,15298 <__ssvfscanf_r+0x3ac>
   1507c:	0001f717          	auipc	a4,0x1f
   15080:	34c70713          	addi	a4,a4,844 # 343c8 <_ZL12NODE_ADDRESS+0xd8>
   15084:	00279793          	slli	a5,a5,0x2
   15088:	00e787b3          	add	a5,a5,a4
   1508c:	0007a783          	lw	a5,0(a5)
   15090:	00e787b3          	add	a5,a5,a4
   15094:	00078067          	jr	a5
   15098:	00058d93          	mv	s11,a1
   1509c:	004ba703          	lw	a4,4(s7)
   150a0:	14e05063          	blez	a4,151e0 <__ssvfscanf_r+0x2f4>
   150a4:	000ba703          	lw	a4,0(s7)
   150a8:	fffdc683          	lbu	a3,-1(s11)
   150ac:	00074603          	lbu	a2,0(a4)
   150b0:	0ed60c63          	beq	a2,a3,151a8 <__ssvfscanf_r+0x2bc>
   150b4:	fffff7b7          	lui	a5,0xfffff
   150b8:	b1878793          	addi	a5,a5,-1256 # ffffeb18 <__BSS_END__+0xfffa3ba8>
   150bc:	008787b3          	add	a5,a5,s0
   150c0:	0007a783          	lw	a5,0(a5)
   150c4:	02078263          	beqz	a5,150e8 <__ssvfscanf_r+0x1fc>
   150c8:	fffff7b7          	lui	a5,0xfffff
   150cc:	b1878793          	addi	a5,a5,-1256 # ffffeb18 <__BSS_END__+0xfffa3ba8>
   150d0:	008787b3          	add	a5,a5,s0
   150d4:	0007a783          	lw	a5,0(a5)
   150d8:	0007a903          	lw	s2,0(a5)
   150dc:	00090663          	beqz	s2,150e8 <__ssvfscanf_r+0x1fc>
   150e0:	00090513          	mv	a0,s2
   150e4:	3280a0ef          	jal	ra,1f40c <free>
   150e8:	fffff7b7          	lui	a5,0xfffff
   150ec:	b1478793          	addi	a5,a5,-1260 # ffffeb14 <__BSS_END__+0xfffa3ba4>
   150f0:	008787b3          	add	a5,a5,s0
   150f4:	0007a503          	lw	a0,0(a5)
   150f8:	00001337          	lui	t1,0x1
   150fc:	00610133          	add	sp,sp,t1
   15100:	51c12083          	lw	ra,1308(sp)
   15104:	51812403          	lw	s0,1304(sp)
   15108:	51412483          	lw	s1,1300(sp)
   1510c:	51012903          	lw	s2,1296(sp)
   15110:	50c12983          	lw	s3,1292(sp)
   15114:	50812a03          	lw	s4,1288(sp)
   15118:	50412a83          	lw	s5,1284(sp)
   1511c:	50012b03          	lw	s6,1280(sp)
   15120:	4fc12b83          	lw	s7,1276(sp)
   15124:	4f812c03          	lw	s8,1272(sp)
   15128:	4f412c83          	lw	s9,1268(sp)
   1512c:	4f012d03          	lw	s10,1264(sp)
   15130:	4ec12d83          	lw	s11,1260(sp)
   15134:	52010113          	addi	sp,sp,1312
   15138:	00008067          	ret
   1513c:	004ba703          	lw	a4,4(s7)
   15140:	02e05c63          	blez	a4,15178 <__ssvfscanf_r+0x28c>
   15144:	000ba783          	lw	a5,0(s7)
   15148:	0007c703          	lbu	a4,0(a5)
   1514c:	00ea8733          	add	a4,s5,a4
   15150:	00074703          	lbu	a4,0(a4)
   15154:	00877713          	andi	a4,a4,8
   15158:	02070863          	beqz	a4,15188 <__ssvfscanf_r+0x29c>
   1515c:	004ba703          	lw	a4,4(s7)
   15160:	00178793          	addi	a5,a5,1
   15164:	00fba023          	sw	a5,0(s7)
   15168:	fff70713          	addi	a4,a4,-1
   1516c:	00eba223          	sw	a4,4(s7)
   15170:	001c8c93          	addi	s9,s9,1
   15174:	fce048e3          	bgtz	a4,15144 <__ssvfscanf_r+0x258>
   15178:	000b8593          	mv	a1,s7
   1517c:	000c0513          	mv	a0,s8
   15180:	1040f0ef          	jal	ra,24284 <__ssrefill_r>
   15184:	fc0500e3          	beqz	a0,15144 <__ssvfscanf_r+0x258>
   15188:	000dc703          	lbu	a4,0(s11)
   1518c:	fc040793          	addi	a5,s0,-64
   15190:	fffff6b7          	lui	a3,0xfffff
   15194:	00d786b3          	add	a3,a5,a3
   15198:	b6e6ae23          	sw	a4,-1156(a3) # ffffeb7c <__BSS_END__+0xfffa3c0c>
   1519c:	001d8d93          	addi	s11,s11,1
   151a0:	e8071ee3          	bnez	a4,1503c <__ssvfscanf_r+0x150>
   151a4:	f11ff06f          	j	150b4 <__ssvfscanf_r+0x1c8>
   151a8:	004ba683          	lw	a3,4(s7)
   151ac:	00170713          	addi	a4,a4,1
   151b0:	00eba023          	sw	a4,0(s7)
   151b4:	fff68713          	addi	a4,a3,-1
   151b8:	00eba223          	sw	a4,4(s7)
   151bc:	000dc703          	lbu	a4,0(s11)
   151c0:	fc040793          	addi	a5,s0,-64
   151c4:	fffff6b7          	lui	a3,0xfffff
   151c8:	00d786b3          	add	a3,a5,a3
   151cc:	b6e6ae23          	sw	a4,-1156(a3) # ffffeb7c <__BSS_END__+0xfffa3c0c>
   151d0:	001c8c93          	addi	s9,s9,1
   151d4:	001d8d93          	addi	s11,s11,1
   151d8:	e60712e3          	bnez	a4,1503c <__ssvfscanf_r+0x150>
   151dc:	ed9ff06f          	j	150b4 <__ssvfscanf_r+0x1c8>
   151e0:	000b8593          	mv	a1,s7
   151e4:	000c0513          	mv	a0,s8
   151e8:	09c0f0ef          	jal	ra,24284 <__ssrefill_r>
   151ec:	ea050ce3          	beqz	a0,150a4 <__ssvfscanf_r+0x1b8>
   151f0:	000b8c13          	mv	s8,s7
   151f4:	fffff7b7          	lui	a5,0xfffff
   151f8:	b1478793          	addi	a5,a5,-1260 # ffffeb14 <__BSS_END__+0xfffa3ba4>
   151fc:	008787b3          	add	a5,a5,s0
   15200:	0007a783          	lw	a5,0(a5)
   15204:	00078863          	beqz	a5,15214 <__ssvfscanf_r+0x328>
   15208:	00cc5783          	lhu	a5,12(s8)
   1520c:	0407f793          	andi	a5,a5,64
   15210:	ea0782e3          	beqz	a5,150b4 <__ssvfscanf_r+0x1c8>
   15214:	fffff7b7          	lui	a5,0xfffff
   15218:	b1878793          	addi	a5,a5,-1256 # ffffeb18 <__BSS_END__+0xfffa3ba8>
   1521c:	008787b3          	add	a5,a5,s0
   15220:	0007a783          	lw	a5,0(a5)
   15224:	00079463          	bnez	a5,1522c <__ssvfscanf_r+0x340>
   15228:	7980206f          	j	179c0 <__ssvfscanf_r+0x2ad4>
   1522c:	fffff7b7          	lui	a5,0xfffff
   15230:	b1878793          	addi	a5,a5,-1256 # ffffeb18 <__BSS_END__+0xfffa3ba8>
   15234:	008787b3          	add	a5,a5,s0
   15238:	0007a783          	lw	a5,0(a5)
   1523c:	0007a903          	lw	s2,0(a5)
   15240:	fffff7b7          	lui	a5,0xfffff
   15244:	b1878793          	addi	a5,a5,-1256 # ffffeb18 <__BSS_END__+0xfffa3ba8>
   15248:	008787b3          	add	a5,a5,s0
   1524c:	0007a783          	lw	a5,0(a5)
   15250:	0067da03          	lhu	s4,6(a5)
   15254:	020a0663          	beqz	s4,15280 <__ssvfscanf_r+0x394>
   15258:	00090493          	mv	s1,s2
   1525c:	00000993          	li	s3,0
   15260:	0004a783          	lw	a5,0(s1)
   15264:	00448493          	addi	s1,s1,4
   15268:	00198993          	addi	s3,s3,1
   1526c:	0007a503          	lw	a0,0(a5)
   15270:	19c0a0ef          	jal	ra,1f40c <free>
   15274:	ffc4a783          	lw	a5,-4(s1)
   15278:	0007a023          	sw	zero,0(a5)
   1527c:	ff4992e3          	bne	s3,s4,15260 <__ssvfscanf_r+0x374>
   15280:	fffff737          	lui	a4,0xfffff
   15284:	b1470713          	addi	a4,a4,-1260 # ffffeb14 <__BSS_END__+0xfffa3ba4>
   15288:	fff00793          	li	a5,-1
   1528c:	00870733          	add	a4,a4,s0
   15290:	00f72023          	sw	a5,0(a4)
   15294:	e49ff06f          	j	150dc <__ssvfscanf_r+0x1f0>
   15298:	fffff7b7          	lui	a5,0xfffff
   1529c:	b1878793          	addi	a5,a5,-1256 # ffffeb18 <__BSS_END__+0xfffa3ba8>
   152a0:	008787b3          	add	a5,a5,s0
   152a4:	0007a783          	lw	a5,0(a5)
   152a8:	e40780e3          	beqz	a5,150e8 <__ssvfscanf_r+0x1fc>
   152ac:	0007a903          	lw	s2,0(a5)
   152b0:	e2dff06f          	j	150dc <__ssvfscanf_r+0x1f0>
   152b4:	08fb7793          	andi	a5,s6,143
   152b8:	de079ee3          	bnez	a5,150b4 <__ssvfscanf_r+0x1c8>
   152bc:	002d1793          	slli	a5,s10,0x2
   152c0:	01a787b3          	add	a5,a5,s10
   152c4:	00179793          	slli	a5,a5,0x1
   152c8:	00c78633          	add	a2,a5,a2
   152cc:	fd060d13          	addi	s10,a2,-48
   152d0:	001dc603          	lbu	a2,1(s11)
   152d4:	00058d93          	mv	s11,a1
   152d8:	d95ff06f          	j	1506c <__ssvfscanf_r+0x180>
   152dc:	00058d93          	mv	s11,a1
   152e0:	00400493          	li	s1,4
   152e4:	004ba703          	lw	a4,4(s7)
   152e8:	38e05a63          	blez	a4,1567c <__ssvfscanf_r+0x790>
   152ec:	040b7713          	andi	a4,s6,64
   152f0:	3a070263          	beqz	a4,15694 <__ssvfscanf_r+0x7a8>
   152f4:	00300713          	li	a4,3
   152f8:	5ae48ae3          	beq	s1,a4,160ac <__ssvfscanf_r+0x11c0>
   152fc:	00400713          	li	a4,4
   15300:	16e48ae3          	beq	s1,a4,15c74 <__ssvfscanf_r+0xd88>
   15304:	00100713          	li	a4,1
   15308:	5ae48263          	beq	s1,a4,158ac <__ssvfscanf_r+0x9c0>
   1530c:	00200713          	li	a4,2
   15310:	00e48463          	beq	s1,a4,15318 <__ssvfscanf_r+0x42c>
   15314:	0440106f          	j	16358 <__ssvfscanf_r+0x146c>
   15318:	000d1463          	bnez	s10,15320 <__ssvfscanf_r+0x434>
   1531c:	fff00d13          	li	s10,-1
   15320:	001b7493          	andi	s1,s6,1
   15324:	010b7913          	andi	s2,s6,16
   15328:	00049463          	bnez	s1,15330 <__ssvfscanf_r+0x444>
   1532c:	6b80106f          	j	169e4 <__ssvfscanf_r+0x1af8>
   15330:	00090463          	beqz	s2,15338 <__ssvfscanf_r+0x44c>
   15334:	7c90106f          	j	172fc <__ssvfscanf_r+0x2410>
   15338:	fffff7b7          	lui	a5,0xfffff
   1533c:	b1078793          	addi	a5,a5,-1264 # ffffeb10 <__BSS_END__+0xfffa3ba0>
   15340:	008787b3          	add	a5,a5,s0
   15344:	0007a783          	lw	a5,0(a5)
   15348:	080b7313          	andi	t1,s6,128
   1534c:	0007aa03          	lw	s4,0(a5)
   15350:	00478993          	addi	s3,a5,4
   15354:	00031463          	bnez	t1,1535c <__ssvfscanf_r+0x470>
   15358:	1700206f          	j	174c8 <__ssvfscanf_r+0x25dc>
   1535c:	f20a0ee3          	beqz	s4,15298 <__ssvfscanf_r+0x3ac>
   15360:	08000513          	li	a0,128
   15364:	09c0a0ef          	jal	ra,1f400 <malloc>
   15368:	00050b13          	mv	s6,a0
   1536c:	ea0504e3          	beqz	a0,15214 <__ssvfscanf_r+0x328>
   15370:	fffff7b7          	lui	a5,0xfffff
   15374:	b1878793          	addi	a5,a5,-1256 # ffffeb18 <__BSS_END__+0xfffa3ba8>
   15378:	008787b3          	add	a5,a5,s0
   1537c:	0007a783          	lw	a5,0(a5)
   15380:	00aa2023          	sw	a0,0(s4)
   15384:	0067d483          	lhu	s1,6(a5)
   15388:	0047d703          	lhu	a4,4(a5)
   1538c:	00e4e463          	bltu	s1,a4,15394 <__ssvfscanf_r+0x4a8>
   15390:	3e50106f          	j	16f74 <__ssvfscanf_r+0x2088>
   15394:	0007a503          	lw	a0,0(a5)
   15398:	fffff7b7          	lui	a5,0xfffff
   1539c:	b1878793          	addi	a5,a5,-1256 # ffffeb18 <__BSS_END__+0xfffa3ba8>
   153a0:	008787b3          	add	a5,a5,s0
   153a4:	0007a783          	lw	a5,0(a5)
   153a8:	00249713          	slli	a4,s1,0x2
   153ac:	00148493          	addi	s1,s1,1
   153b0:	00979323          	sh	s1,6(a5)
   153b4:	fffff7b7          	lui	a5,0xfffff
   153b8:	b1078793          	addi	a5,a5,-1264 # ffffeb10 <__BSS_END__+0xfffa3ba0>
   153bc:	008787b3          	add	a5,a5,s0
   153c0:	0137a023          	sw	s3,0(a5)
   153c4:	fffff7b7          	lui	a5,0xfffff
   153c8:	00e50533          	add	a0,a0,a4
   153cc:	af878793          	addi	a5,a5,-1288 # ffffeaf8 <__BSS_END__+0xfffa3b88>
   153d0:	fffff737          	lui	a4,0xfffff
   153d4:	008787b3          	add	a5,a5,s0
   153d8:	afc70713          	addi	a4,a4,-1284 # ffffeafc <__BSS_END__+0xfffa3b8c>
   153dc:	0167a023          	sw	s6,0(a5)
   153e0:	00870733          	add	a4,a4,s0
   153e4:	02000793          	li	a5,32
   153e8:	01452023          	sw	s4,0(a0)
   153ec:	00f72023          	sw	a5,0(a4)
   153f0:	000ba703          	lw	a4,0(s7)
   153f4:	00074703          	lbu	a4,0(a4)
   153f8:	00ea8733          	add	a4,s5,a4
   153fc:	00074703          	lbu	a4,0(a4)
   15400:	00877713          	andi	a4,a4,8
   15404:	1a071663          	bnez	a4,155b0 <__ssvfscanf_r+0x6c4>
   15408:	fffff7b7          	lui	a5,0xfffff
   1540c:	fc040713          	addi	a4,s0,-64
   15410:	c9078313          	addi	t1,a5,-880 # ffffec90 <__BSS_END__+0xfffa3d20>
   15414:	00f707b3          	add	a5,a4,a5
   15418:	fffff737          	lui	a4,0xfffff
   1541c:	af470713          	addi	a4,a4,-1292 # ffffeaf4 <__BSS_END__+0xfffa3b84>
   15420:	00870733          	add	a4,a4,s0
   15424:	00f72023          	sw	a5,0(a4)
   15428:	fc040793          	addi	a5,s0,-64
   1542c:	006784b3          	add	s1,a5,t1
   15430:	00048793          	mv	a5,s1
   15434:	00000993          	li	s3,0
   15438:	000b8493          	mv	s1,s7
   1543c:	00090b93          	mv	s7,s2
   15440:	00078913          	mv	s2,a5
   15444:	6d9090ef          	jal	ra,1f31c <__locale_mb_cur_max>
   15448:	01351463          	bne	a0,s3,15450 <__ssvfscanf_r+0x564>
   1544c:	52c0206f          	j	17978 <__ssvfscanf_r+0x2a8c>
   15450:	0004a703          	lw	a4,0(s1)
   15454:	fffff7b7          	lui	a5,0xfffff
   15458:	af478793          	addi	a5,a5,-1292 # ffffeaf4 <__BSS_END__+0xfffa3b84>
   1545c:	00074583          	lbu	a1,0(a4)
   15460:	00170713          	addi	a4,a4,1
   15464:	008787b3          	add	a5,a5,s0
   15468:	00e4a023          	sw	a4,0(s1)
   1546c:	fffff737          	lui	a4,0xfffff
   15470:	0044a683          	lw	a3,4(s1)
   15474:	0007a783          	lw	a5,0(a5)
   15478:	b0470713          	addi	a4,a4,-1276 # ffffeb04 <__BSS_END__+0xfffa3b94>
   1547c:	00870733          	add	a4,a4,s0
   15480:	00072703          	lw	a4,0(a4)
   15484:	01378633          	add	a2,a5,s3
   15488:	fff68693          	addi	a3,a3,-1
   1548c:	00d4a223          	sw	a3,4(s1)
   15490:	c8b60823          	sb	a1,-880(a2)
   15494:	00300693          	li	a3,3
   15498:	00198993          	addi	s3,s3,1
   1549c:	00d71863          	bne	a4,a3,154ac <__ssvfscanf_r+0x5c0>
   154a0:	b887a703          	lw	a4,-1144(a5)
   154a4:	00400793          	li	a5,4
   154a8:	02f70063          	beq	a4,a5,154c8 <__ssvfscanf_r+0x5dc>
   154ac:	fffff7b7          	lui	a5,0xfffff
   154b0:	b1c78793          	addi	a5,a5,-1252 # ffffeb1c <__BSS_END__+0xfffa3bac>
   154b4:	008787b3          	add	a5,a5,s0
   154b8:	0007a503          	lw	a0,0(a5)
   154bc:	00800613          	li	a2,8
   154c0:	00000593          	li	a1,0
   154c4:	854ff0ef          	jal	ra,14518 <memset>
   154c8:	fffff7b7          	lui	a5,0xfffff
   154cc:	b1c78793          	addi	a5,a5,-1252 # ffffeb1c <__BSS_END__+0xfffa3bac>
   154d0:	008787b3          	add	a5,a5,s0
   154d4:	0007a703          	lw	a4,0(a5)
   154d8:	00098693          	mv	a3,s3
   154dc:	00090613          	mv	a2,s2
   154e0:	000b0593          	mv	a1,s6
   154e4:	000c0513          	mv	a0,s8
   154e8:	731090ef          	jal	ra,1f418 <_mbrtowc_r>
   154ec:	fffff737          	lui	a4,0xfffff
   154f0:	b0470713          	addi	a4,a4,-1276 # ffffeb04 <__BSS_END__+0xfffa3b94>
   154f4:	00870733          	add	a4,a4,s0
   154f8:	00a72023          	sw	a0,0(a4)
   154fc:	fff00693          	li	a3,-1
   15500:	00d51463          	bne	a0,a3,15508 <__ssvfscanf_r+0x61c>
   15504:	4740206f          	j	17978 <__ssvfscanf_r+0x2a8c>
